; ModuleID = '/D/xilinx_workspace/PL_AXI_DMA_Controller/solution1/.autopilot/db/a.g.1.bc'
target datalayout = "e-p:64:64:64-i1:8:8-i8:8:8-i16:16:16-i32:32:32-i64:64:64-f32:32:32-f64:64:64-v64:64:64-v128:128:128-a0:0:64-s0:64:64-f80:128:128-n8:16:32:64-S128"
target triple = "x86_64-unknown-linux-gnu"

%"class.std::ios_base::Init.0" = type {}
%struct.ap_uint.3 = type { %struct.ap_int_base.2 }
%struct.ap_int_base.2 = type { %struct.ssdm_int.1 }
%struct.ssdm_int.1 = type { i1 }

@.str = private unnamed_addr constant [8 x i8] c"ap_none\00", align 1 ; [#uses=1 type=[8 x i8]*]
@.str1 = private unnamed_addr constant [1 x i8] zeroinitializer, align 1 ; [#uses=1 type=[1 x i8]*]
@.str2 = private unnamed_addr constant [6 x i8] c"m_axi\00", align 1 ; [#uses=1 type=[6 x i8]*]
@.str3 = private unnamed_addr constant [10 x i8] c"slave_bus\00", align 1 ; [#uses=1 type=[10 x i8]*]
@.str4 = private unnamed_addr constant [4 x i8] c"off\00", align 1 ; [#uses=1 type=[4 x i8]*]
@.str5 = private unnamed_addr constant [12 x i8] c"member_name\00", align 1 ; [#uses=1 type=[12 x i8]*]
@.str6 = private unnamed_addr constant [34 x i8] c"fabric_interrupt_write_finished.V\00", align 1 ; [#uses=1 type=[34 x i8]*]
@.str7 = private unnamed_addr constant [33 x i8] c"fabric_interrupt_read_finished.V\00", align 1 ; [#uses=1 type=[33 x i8]*]
@.str8 = private unnamed_addr constant [22 x i8] c"controller_finished.V\00", align 1 ; [#uses=1 type=[22 x i8]*]
@llvm.global_ctors = appending global [1 x { i32, void ()* }] [{ i32, void ()* } { i32 65535, void ()* @_GLOBAL__I_a }] ; [#uses=0 type=[1 x { i32, void ()* }]*]
@str = internal constant [22 x i8] c"pl_axi_dma_controller\00" ; [#uses=1 type=[22 x i8]*]

; [#uses=0]
declare void @_ZNSt8ios_base4InitC1Ev(%"class.std::ios_base::Init.0"*)

; [#uses=0]
declare void @_ZNSt8ios_base4InitD1Ev(%"class.std::ios_base::Init.0"*)

; [#uses=0]
declare i32 @atexit(void ()*) nounwind

; [#uses=0]
define void @pl_axi_dma_controller(i32* %AXI_DMA_SLAVE, i32 %startAddress, i1 zeroext %write, i32 %length, i32 %iterations, i1 zeroext %enabled, i1* %reset_scanner, i32* %dma_control, i32* %dma_status, i32* %dma_address, %struct.ap_uint.3* %fabric_interrupt_write_finished, %struct.ap_uint.3* %fabric_interrupt_read_finished, %struct.ap_uint.3* %controller_finished) nounwind uwtable {
  call void (...)* @_ssdm_op_SpecTopModule([22 x i8]* @str) nounwind
  %startAddress.assign = alloca i32, align 4      ; [#uses=4 type=i32*]
  %write.assign = alloca i1, align 1              ; [#uses=2 type=i1*]
  %length.assign = alloca i32, align 4            ; [#uses=4 type=i32*]
  %iterations.assign = alloca i32, align 4        ; [#uses=3 type=i32*]
  %enabled.assign = alloca i1, align 1            ; [#uses=3 type=i1*]
  call void @llvm.dbg.value(metadata !{i32* %AXI_DMA_SLAVE}, i64 0, metadata !1572), !dbg !1573 ; [debug line = 4:51] [debug variable = AXI_DMA_SLAVE]
  call void @llvm.dbg.value(metadata !{i32 %startAddress}, i64 0, metadata !1574), !dbg !1575 ; [debug line = 4:84] [debug variable = startAddress]
  call void @llvm.dbg.value(metadata !{i32 %startAddress}, i64 0, metadata !1574), !dbg !1575 ; [debug line = 4:84] [debug variable = startAddress]
  call void @llvm.dbg.value(metadata !{i32 %startAddress}, i64 0, metadata !1574), !dbg !1575 ; [debug line = 4:84] [debug variable = startAddress]
  call void @llvm.dbg.value(metadata !{i32 %startAddress}, i64 0, metadata !1574), !dbg !1575 ; [debug line = 4:84] [debug variable = startAddress]
  call void @llvm.dbg.value(metadata !{i32 %startAddress}, i64 0, metadata !1574), !dbg !1575 ; [debug line = 4:84] [debug variable = startAddress]
  call void @llvm.dbg.value(metadata !{i32 %startAddress}, i64 0, metadata !1574), !dbg !1575 ; [debug line = 4:84] [debug variable = startAddress]
  call void @llvm.dbg.value(metadata !{i32 %startAddress}, i64 0, metadata !1574), !dbg !1575 ; [debug line = 4:84] [debug variable = startAddress]
  call void @llvm.dbg.value(metadata !{i32 %startAddress}, i64 0, metadata !1574), !dbg !1575 ; [debug line = 4:84] [debug variable = startAddress]
  call void @llvm.dbg.value(metadata !{i32 %startAddress}, i64 0, metadata !1574), !dbg !1575 ; [debug line = 4:84] [debug variable = startAddress]
  call void @llvm.dbg.value(metadata !{i32 %startAddress}, i64 0, metadata !1574), !dbg !1575 ; [debug line = 4:84] [debug variable = startAddress]
  call void @llvm.dbg.value(metadata !{i32 %startAddress}, i64 0, metadata !1574), !dbg !1575 ; [debug line = 4:84] [debug variable = startAddress]
  store volatile i32 %startAddress, i32* %startAddress.assign, align 4
  call void @llvm.dbg.declare(metadata !{i32* %startAddress.assign}, metadata !1574), !dbg !1575 ; [debug line = 4:84] [debug variable = startAddress]
  call void @llvm.dbg.value(metadata !{i1 %write}, i64 0, metadata !1576), !dbg !1577 ; [debug line = 4:112] [debug variable = write]
  store volatile i1 %write, i1* %write.assign, align 1
  call void @llvm.dbg.value(metadata !{i32 %length}, i64 0, metadata !1578), !dbg !1579 ; [debug line = 4:132] [debug variable = length]
  call void @llvm.dbg.value(metadata !{i32 %length}, i64 0, metadata !1578), !dbg !1579 ; [debug line = 4:132] [debug variable = length]
  call void @llvm.dbg.value(metadata !{i32 %length}, i64 0, metadata !1578), !dbg !1579 ; [debug line = 4:132] [debug variable = length]
  call void @llvm.dbg.value(metadata !{i32 %length}, i64 0, metadata !1578), !dbg !1579 ; [debug line = 4:132] [debug variable = length]
  call void @llvm.dbg.value(metadata !{i32 %length}, i64 0, metadata !1578), !dbg !1579 ; [debug line = 4:132] [debug variable = length]
  call void @llvm.dbg.value(metadata !{i32 %length}, i64 0, metadata !1578), !dbg !1579 ; [debug line = 4:132] [debug variable = length]
  call void @llvm.dbg.value(metadata !{i32 %length}, i64 0, metadata !1578), !dbg !1579 ; [debug line = 4:132] [debug variable = length]
  call void @llvm.dbg.value(metadata !{i32 %length}, i64 0, metadata !1578), !dbg !1579 ; [debug line = 4:132] [debug variable = length]
  call void @llvm.dbg.value(metadata !{i32 %length}, i64 0, metadata !1578), !dbg !1579 ; [debug line = 4:132] [debug variable = length]
  call void @llvm.dbg.value(metadata !{i32 %length}, i64 0, metadata !1578), !dbg !1579 ; [debug line = 4:132] [debug variable = length]
  call void @llvm.dbg.value(metadata !{i32 %length}, i64 0, metadata !1578), !dbg !1579 ; [debug line = 4:132] [debug variable = length]
  store volatile i32 %length, i32* %length.assign, align 4
  call void @llvm.dbg.declare(metadata !{i32* %length.assign}, metadata !1578), !dbg !1579 ; [debug line = 4:132] [debug variable = length]
  call void @llvm.dbg.value(metadata !{i32 %iterations}, i64 0, metadata !1580), !dbg !1581 ; [debug line = 5:16] [debug variable = iterations]
  call void @llvm.dbg.value(metadata !{i32 %iterations}, i64 0, metadata !1580), !dbg !1581 ; [debug line = 5:16] [debug variable = iterations]
  call void @llvm.dbg.value(metadata !{i32 %iterations}, i64 0, metadata !1580), !dbg !1581 ; [debug line = 5:16] [debug variable = iterations]
  call void @llvm.dbg.value(metadata !{i32 %iterations}, i64 0, metadata !1580), !dbg !1581 ; [debug line = 5:16] [debug variable = iterations]
  call void @llvm.dbg.value(metadata !{i32 %iterations}, i64 0, metadata !1580), !dbg !1581 ; [debug line = 5:16] [debug variable = iterations]
  call void @llvm.dbg.value(metadata !{i32 %iterations}, i64 0, metadata !1580), !dbg !1581 ; [debug line = 5:16] [debug variable = iterations]
  call void @llvm.dbg.value(metadata !{i32 %iterations}, i64 0, metadata !1580), !dbg !1581 ; [debug line = 5:16] [debug variable = iterations]
  call void @llvm.dbg.value(metadata !{i32 %iterations}, i64 0, metadata !1580), !dbg !1581 ; [debug line = 5:16] [debug variable = iterations]
  call void @llvm.dbg.value(metadata !{i32 %iterations}, i64 0, metadata !1580), !dbg !1581 ; [debug line = 5:16] [debug variable = iterations]
  call void @llvm.dbg.value(metadata !{i32 %iterations}, i64 0, metadata !1580), !dbg !1581 ; [debug line = 5:16] [debug variable = iterations]
  call void @llvm.dbg.value(metadata !{i32 %iterations}, i64 0, metadata !1580), !dbg !1581 ; [debug line = 5:16] [debug variable = iterations]
  store volatile i32 %iterations, i32* %iterations.assign, align 4
  call void @llvm.dbg.declare(metadata !{i32* %iterations.assign}, metadata !1580), !dbg !1581 ; [debug line = 5:16] [debug variable = iterations]
  call void @llvm.dbg.value(metadata !{i1 %enabled}, i64 0, metadata !1582), !dbg !1583 ; [debug line = 5:42] [debug variable = enabled]
  call void @llvm.dbg.value(metadata !{i1 %enabled}, i64 0, metadata !1582), !dbg !1583 ; [debug line = 5:42] [debug variable = enabled]
  call void @llvm.dbg.value(metadata !{i1 %enabled}, i64 0, metadata !1582), !dbg !1583 ; [debug line = 5:42] [debug variable = enabled]
  call void @llvm.dbg.value(metadata !{i1 %enabled}, i64 0, metadata !1582), !dbg !1583 ; [debug line = 5:42] [debug variable = enabled]
  call void @llvm.dbg.value(metadata !{i1 %enabled}, i64 0, metadata !1582), !dbg !1583 ; [debug line = 5:42] [debug variable = enabled]
  call void @llvm.dbg.value(metadata !{i1 %enabled}, i64 0, metadata !1582), !dbg !1583 ; [debug line = 5:42] [debug variable = enabled]
  call void @llvm.dbg.value(metadata !{i1 %enabled}, i64 0, metadata !1582), !dbg !1583 ; [debug line = 5:42] [debug variable = enabled]
  call void @llvm.dbg.value(metadata !{i1 %enabled}, i64 0, metadata !1582), !dbg !1583 ; [debug line = 5:42] [debug variable = enabled]
  call void @llvm.dbg.value(metadata !{i1 %enabled}, i64 0, metadata !1582), !dbg !1583 ; [debug line = 5:42] [debug variable = enabled]
  call void @llvm.dbg.value(metadata !{i1 %enabled}, i64 0, metadata !1582), !dbg !1583 ; [debug line = 5:42] [debug variable = enabled]
  call void @llvm.dbg.value(metadata !{i1 %enabled}, i64 0, metadata !1582), !dbg !1583 ; [debug line = 5:42] [debug variable = enabled]
  store volatile i1 %enabled, i1* %enabled.assign, align 1
  call void @llvm.dbg.declare(metadata !{i1* %enabled.assign}, metadata !1582), !dbg !1583 ; [debug line = 5:42] [debug variable = enabled]
  call void @llvm.dbg.value(metadata !{i1* %reset_scanner}, i64 0, metadata !1584), !dbg !1585 ; [debug line = 5:66] [debug variable = reset_scanner]
  call void @llvm.dbg.value(metadata !{i32* %dma_control}, i64 0, metadata !1586), !dbg !1587 ; [debug line = 6:17] [debug variable = dma_control]
  call void @llvm.dbg.value(metadata !{i32* %dma_status}, i64 0, metadata !1588), !dbg !1589 ; [debug line = 6:44] [debug variable = dma_status]
  call void @llvm.dbg.value(metadata !{i32* %dma_address}, i64 0, metadata !1590), !dbg !1591 ; [debug line = 6:70] [debug variable = dma_address]
  call void @llvm.dbg.value(metadata !{%struct.ap_uint.3* %fabric_interrupt_write_finished}, i64 0, metadata !1592), !dbg !1593 ; [debug line = 7:24] [debug variable = fabric_interrupt_write_finished]
  call void @llvm.dbg.value(metadata !{%struct.ap_uint.3* %fabric_interrupt_read_finished}, i64 0, metadata !1594), !dbg !1595 ; [debug line = 7:78] [debug variable = fabric_interrupt_read_finished]
  call void @llvm.dbg.value(metadata !{%struct.ap_uint.3* %controller_finished}, i64 0, metadata !1596), !dbg !1597 ; [debug line = 7:131] [debug variable = controller_finished]
  call void @llvm.dbg.value(metadata !{%struct.ap_uint.3* %controller_finished}, i64 0, metadata !1598), !dbg !1599 ; [debug line = 46:117@7:152] [debug variable = controller_finished]
  %controller_finished.addr = getelementptr inbounds %struct.ap_uint.3* %controller_finished, i64 0, i32 0, i32 0, i32 0, !dbg !1602 ; [#uses=4 type=i1*] [debug line = 58:152@52:158@46:139@7:152]
  call void (...)* @_ssdm_op_SpecExt(i8* getelementptr inbounds ([12 x i8]* @.str5, i64 0, i64 0), i8* getelementptr inbounds ([22 x i8]* @.str8, i64 0, i64 0), i1* %controller_finished.addr) nounwind, !dbg !1602 ; [debug line = 58:152@52:158@46:139@7:152]
  call void @llvm.dbg.value(metadata !{%struct.ap_uint.3* %fabric_interrupt_read_finished}, i64 0, metadata !1608), !dbg !1609 ; [debug line = 28:128@7:0] [debug variable = fabric_interrupt_read_finished]
  %fabric_interrupt_read_finished.addr = getelementptr inbounds %struct.ap_uint.3* %fabric_interrupt_read_finished, i64 0, i32 0, i32 0, i32 0, !dbg !1611 ; [#uses=3 type=i1*] [debug line = 40:174@34:180@28:161@7:0]
  call void (...)* @_ssdm_op_SpecExt(i8* getelementptr inbounds ([12 x i8]* @.str5, i64 0, i64 0), i8* getelementptr inbounds ([33 x i8]* @.str7, i64 0, i64 0), i1* %fabric_interrupt_read_finished.addr) nounwind, !dbg !1611 ; [debug line = 40:174@34:180@28:161@7:0]
  call void @llvm.dbg.value(metadata !{%struct.ap_uint.3* %fabric_interrupt_write_finished}, i64 0, metadata !1617), !dbg !1618 ; [debug line = 10:129@7:0] [debug variable = fabric_interrupt_write_finished]
  %fabric_interrupt_write_finished.addr = getelementptr inbounds %struct.ap_uint.3* %fabric_interrupt_write_finished, i64 0, i32 0, i32 0, i32 0, !dbg !1619 ; [#uses=3 type=i1*] [debug line = 22:176@16:182@10:163@7:0]
  call void (...)* @_ssdm_op_SpecExt(i8* getelementptr inbounds ([12 x i8]* @.str5, i64 0, i64 0), i8* getelementptr inbounds ([34 x i8]* @.str6, i64 0, i64 0), i1* %fabric_interrupt_write_finished.addr) nounwind, !dbg !1619 ; [debug line = 22:176@16:182@10:163@7:0]
  call void (...)* @_ssdm_op_SpecWire(%struct.ap_uint.3* %controller_finished, i8* getelementptr inbounds ([8 x i8]* @.str, i64 0, i64 0), i32 0, i32 0, i32 0, i32 0, i8* getelementptr inbounds ([1 x i8]* @.str1, i64 0, i64 0), i8* getelementptr inbounds ([1 x i8]* @.str1, i64 0, i64 0), i8* getelementptr inbounds ([1 x i8]* @.str1, i64 0, i64 0)) nounwind, !dbg !1625 ; [debug line = 8:1]
  call void (...)* @_ssdm_op_SpecWire(%struct.ap_uint.3* %fabric_interrupt_write_finished, i8* getelementptr inbounds ([8 x i8]* @.str, i64 0, i64 0), i32 0, i32 0, i32 0, i32 0, i8* getelementptr inbounds ([1 x i8]* @.str1, i64 0, i64 0), i8* getelementptr inbounds ([1 x i8]* @.str1, i64 0, i64 0), i8* getelementptr inbounds ([1 x i8]* @.str1, i64 0, i64 0)) nounwind, !dbg !1626 ; [debug line = 10:1]
  call void (...)* @_ssdm_op_SpecWire(%struct.ap_uint.3* %fabric_interrupt_read_finished, i8* getelementptr inbounds ([8 x i8]* @.str, i64 0, i64 0), i32 0, i32 0, i32 0, i32 0, i8* getelementptr inbounds ([1 x i8]* @.str1, i64 0, i64 0), i8* getelementptr inbounds ([1 x i8]* @.str1, i64 0, i64 0), i8* getelementptr inbounds ([1 x i8]* @.str1, i64 0, i64 0)) nounwind, !dbg !1627 ; [debug line = 12:1]
  call void (...)* @_ssdm_op_SpecWire(i1* %reset_scanner, i8* getelementptr inbounds ([8 x i8]* @.str, i64 0, i64 0), i32 0, i32 0, i32 0, i32 0, i8* getelementptr inbounds ([1 x i8]* @.str1, i64 0, i64 0), i8* getelementptr inbounds ([1 x i8]* @.str1, i64 0, i64 0), i8* getelementptr inbounds ([1 x i8]* @.str1, i64 0, i64 0)) nounwind, !dbg !1628 ; [debug line = 14:1]
  call void (...)* @_ssdm_op_SpecWire(i32* %dma_address, i8* getelementptr inbounds ([8 x i8]* @.str, i64 0, i64 0), i32 0, i32 0, i32 0, i32 0, i8* getelementptr inbounds ([1 x i8]* @.str1, i64 0, i64 0), i8* getelementptr inbounds ([1 x i8]* @.str1, i64 0, i64 0), i8* getelementptr inbounds ([1 x i8]* @.str1, i64 0, i64 0)) nounwind, !dbg !1629 ; [debug line = 16:1]
  call void (...)* @_ssdm_op_SpecWire(i32* %dma_status, i8* getelementptr inbounds ([8 x i8]* @.str, i64 0, i64 0), i32 0, i32 0, i32 0, i32 0, i8* getelementptr inbounds ([1 x i8]* @.str1, i64 0, i64 0), i8* getelementptr inbounds ([1 x i8]* @.str1, i64 0, i64 0), i8* getelementptr inbounds ([1 x i8]* @.str1, i64 0, i64 0)) nounwind, !dbg !1630 ; [debug line = 18:1]
  call void (...)* @_ssdm_op_SpecWire(i32* %dma_control, i8* getelementptr inbounds ([8 x i8]* @.str, i64 0, i64 0), i32 0, i32 0, i32 0, i32 0, i8* getelementptr inbounds ([1 x i8]* @.str1, i64 0, i64 0), i8* getelementptr inbounds ([1 x i8]* @.str1, i64 0, i64 0), i8* getelementptr inbounds ([1 x i8]* @.str1, i64 0, i64 0)) nounwind, !dbg !1631 ; [debug line = 20:1]
  call void (...)* @_ssdm_op_SpecWire(i1* %enabled.assign, i8* getelementptr inbounds ([8 x i8]* @.str, i64 0, i64 0), i32 0, i32 0, i32 0, i32 0, i8* getelementptr inbounds ([1 x i8]* @.str1, i64 0, i64 0), i8* getelementptr inbounds ([1 x i8]* @.str1, i64 0, i64 0), i8* getelementptr inbounds ([1 x i8]* @.str1, i64 0, i64 0)) nounwind, !dbg !1632 ; [debug line = 22:1]
  call void (...)* @_ssdm_op_SpecWire(i32* %iterations.assign, i8* getelementptr inbounds ([8 x i8]* @.str, i64 0, i64 0), i32 0, i32 0, i32 0, i32 0, i8* getelementptr inbounds ([1 x i8]* @.str1, i64 0, i64 0), i8* getelementptr inbounds ([1 x i8]* @.str1, i64 0, i64 0), i8* getelementptr inbounds ([1 x i8]* @.str1, i64 0, i64 0)) nounwind, !dbg !1633 ; [debug line = 24:1]
  call void (...)* @_ssdm_op_SpecWire(i32* %length.assign, i8* getelementptr inbounds ([8 x i8]* @.str, i64 0, i64 0), i32 0, i32 0, i32 0, i32 0, i8* getelementptr inbounds ([1 x i8]* @.str1, i64 0, i64 0), i8* getelementptr inbounds ([1 x i8]* @.str1, i64 0, i64 0), i8* getelementptr inbounds ([1 x i8]* @.str1, i64 0, i64 0)) nounwind, !dbg !1634 ; [debug line = 26:1]
  call void (...)* @_ssdm_op_SpecWire(i32* %startAddress.assign, i8* getelementptr inbounds ([8 x i8]* @.str, i64 0, i64 0), i32 0, i32 0, i32 0, i32 0, i8* getelementptr inbounds ([1 x i8]* @.str1, i64 0, i64 0), i8* getelementptr inbounds ([1 x i8]* @.str1, i64 0, i64 0), i8* getelementptr inbounds ([1 x i8]* @.str1, i64 0, i64 0)) nounwind, !dbg !1635 ; [debug line = 28:1]
  call void (...)* @_ssdm_op_SpecWire(i32 0, i8* getelementptr inbounds ([8 x i8]* @.str, i64 0, i64 0), i32 0, i32 0, i32 0, i32 0, i8* getelementptr inbounds ([1 x i8]* @.str1, i64 0, i64 0), i8* getelementptr inbounds ([1 x i8]* @.str1, i64 0, i64 0), i8* getelementptr inbounds ([1 x i8]* @.str1, i64 0, i64 0)) nounwind, !dbg !1636 ; [debug line = 30:1]
  call void (...)* @_ssdm_op_SpecWire(i32* %AXI_DMA_SLAVE, i8* getelementptr inbounds ([6 x i8]* @.str2, i64 0, i64 0), i32 0, i32 0, i32 0, i32 14, i8* getelementptr inbounds ([10 x i8]* @.str3, i64 0, i64 0), i8* getelementptr inbounds ([4 x i8]* @.str4, i64 0, i64 0), i8* getelementptr inbounds ([1 x i8]* @.str1, i64 0, i64 0)) nounwind, !dbg !1637 ; [debug line = 32:1]
  call void @llvm.dbg.value(metadata !{i1* %enabled.assign}, i64 0, metadata !1582), !dbg !1638 ; [debug line = 34:29] [debug variable = enabled]
  call void @llvm.dbg.value(metadata !{i1* %enabled.assign}, i64 0, metadata !1582), !dbg !1638 ; [debug line = 34:29] [debug variable = enabled]
  call void @llvm.dbg.value(metadata !{i1* %enabled.assign}, i64 0, metadata !1582), !dbg !1638 ; [debug line = 34:29] [debug variable = enabled]
  call void @llvm.dbg.value(metadata !{i1* %enabled.assign}, i64 0, metadata !1582), !dbg !1638 ; [debug line = 34:29] [debug variable = enabled]
  call void @llvm.dbg.value(metadata !{i1* %enabled.assign}, i64 0, metadata !1582), !dbg !1638 ; [debug line = 34:29] [debug variable = enabled]
  call void @llvm.dbg.value(metadata !{i1* %enabled.assign}, i64 0, metadata !1582), !dbg !1638 ; [debug line = 34:29] [debug variable = enabled]
  call void @llvm.dbg.value(metadata !{i1* %enabled.assign}, i64 0, metadata !1582), !dbg !1638 ; [debug line = 34:29] [debug variable = enabled]
  call void @llvm.dbg.value(metadata !{i1* %enabled.assign}, i64 0, metadata !1582), !dbg !1638 ; [debug line = 34:29] [debug variable = enabled]
  call void @llvm.dbg.value(metadata !{i1* %enabled.assign}, i64 0, metadata !1582), !dbg !1638 ; [debug line = 34:29] [debug variable = enabled]
  call void @llvm.dbg.value(metadata !{i1* %enabled.assign}, i64 0, metadata !1582), !dbg !1638 ; [debug line = 34:29] [debug variable = enabled]
  call void @llvm.dbg.value(metadata !{i1* %enabled.assign}, i64 0, metadata !1582), !dbg !1638 ; [debug line = 34:29] [debug variable = enabled]
  %localEnabled = load volatile i1* %enabled.assign, align 1, !dbg !1638 ; [#uses=1 type=i1] [debug line = 34:29]
  call void @llvm.dbg.value(metadata !{i1 %localEnabled}, i64 0, metadata !1639), !dbg !1638 ; [debug line = 34:29] [debug variable = localEnabled]
  br i1 %localEnabled, label %1, label %._crit_edge, !dbg !1640 ; [debug line = 37:2]

; <label>:1                                       ; preds = %0
  call void @llvm.dbg.value(metadata !{i1* %write.assign}, i64 0, metadata !1576), !dbg !1641 ; [debug line = 38:3] [debug variable = write]
  %write.assign.load = load volatile i1* %write.assign, align 1, !dbg !1641 ; [#uses=1 type=i1] [debug line = 38:3]
  br i1 %write.assign.load, label %2, label %11, !dbg !1641 ; [debug line = 38:3]

; <label>:2                                       ; preds = %1
  call void @llvm.dbg.value(metadata !{i32* %startAddress.assign}, i64 0, metadata !1574), !dbg !1643 ; [debug line = 40:40] [debug variable = startAddress]
  call void @llvm.dbg.value(metadata !{i32* %startAddress.assign}, i64 0, metadata !1574), !dbg !1643 ; [debug line = 40:40] [debug variable = startAddress]
  call void @llvm.dbg.value(metadata !{i32* %startAddress.assign}, i64 0, metadata !1574), !dbg !1643 ; [debug line = 40:40] [debug variable = startAddress]
  call void @llvm.dbg.value(metadata !{i32* %startAddress.assign}, i64 0, metadata !1574), !dbg !1643 ; [debug line = 40:40] [debug variable = startAddress]
  call void @llvm.dbg.value(metadata !{i32* %startAddress.assign}, i64 0, metadata !1574), !dbg !1643 ; [debug line = 40:40] [debug variable = startAddress]
  call void @llvm.dbg.value(metadata !{i32* %startAddress.assign}, i64 0, metadata !1574), !dbg !1643 ; [debug line = 40:40] [debug variable = startAddress]
  call void @llvm.dbg.value(metadata !{i32* %startAddress.assign}, i64 0, metadata !1574), !dbg !1643 ; [debug line = 40:40] [debug variable = startAddress]
  call void @llvm.dbg.value(metadata !{i32* %startAddress.assign}, i64 0, metadata !1574), !dbg !1643 ; [debug line = 40:40] [debug variable = startAddress]
  call void @llvm.dbg.value(metadata !{i32* %startAddress.assign}, i64 0, metadata !1574), !dbg !1643 ; [debug line = 40:40] [debug variable = startAddress]
  call void @llvm.dbg.value(metadata !{i32* %startAddress.assign}, i64 0, metadata !1574), !dbg !1643 ; [debug line = 40:40] [debug variable = startAddress]
  call void @llvm.dbg.value(metadata !{i32* %startAddress.assign}, i64 0, metadata !1574), !dbg !1643 ; [debug line = 40:40] [debug variable = startAddress]
  %localAddress = load volatile i32* %startAddress.assign, align 4, !dbg !1643 ; [#uses=1 type=i32] [debug line = 40:40]
  call void @llvm.dbg.value(metadata !{i32 %localAddress}, i64 0, metadata !1645), !dbg !1643 ; [debug line = 40:40] [debug variable = localAddress]
  store volatile i1 true, i1* %reset_scanner, align 1, !dbg !1646 ; [debug line = 41:4]
  store volatile i1 false, i1* %reset_scanner, align 1, !dbg !1647 ; [debug line = 42:4]
  %AXI_DMA_SLAVE.addr = getelementptr inbounds i32* %AXI_DMA_SLAVE, i64 1, !dbg !1648 ; [#uses=2 type=i32*] [debug line = 56:5]
  %AXI_DMA_SLAVE.addr.1 = getelementptr inbounds i32* %AXI_DMA_SLAVE, i64 6, !dbg !1651 ; [#uses=1 type=i32*] [debug line = 59:5]
  %AXI_DMA_SLAVE.addr.2 = getelementptr inbounds i32* %AXI_DMA_SLAVE, i64 10, !dbg !1652 ; [#uses=1 type=i32*] [debug line = 62:5]
  br label %3, !dbg !1653                         ; [debug line = 43:8]

; <label>:3                                       ; preds = %10, %2
  %i = phi i32 [ 0, %2 ], [ %i.1, %10 ]           ; [#uses=2 type=i32]
  %localAddress1 = phi i32 [ %localAddress, %2 ], [ %localAddress.2, %10 ] ; [#uses=3 type=i32]
  call void @llvm.dbg.value(metadata !{i32* %iterations.assign}, i64 0, metadata !1580), !dbg !1653 ; [debug line = 43:8] [debug variable = iterations]
  call void @llvm.dbg.value(metadata !{i32* %iterations.assign}, i64 0, metadata !1580), !dbg !1653 ; [debug line = 43:8] [debug variable = iterations]
  call void @llvm.dbg.value(metadata !{i32* %iterations.assign}, i64 0, metadata !1580), !dbg !1653 ; [debug line = 43:8] [debug variable = iterations]
  call void @llvm.dbg.value(metadata !{i32* %iterations.assign}, i64 0, metadata !1580), !dbg !1653 ; [debug line = 43:8] [debug variable = iterations]
  call void @llvm.dbg.value(metadata !{i32* %iterations.assign}, i64 0, metadata !1580), !dbg !1653 ; [debug line = 43:8] [debug variable = iterations]
  call void @llvm.dbg.value(metadata !{i32* %iterations.assign}, i64 0, metadata !1580), !dbg !1653 ; [debug line = 43:8] [debug variable = iterations]
  call void @llvm.dbg.value(metadata !{i32* %iterations.assign}, i64 0, metadata !1580), !dbg !1653 ; [debug line = 43:8] [debug variable = iterations]
  call void @llvm.dbg.value(metadata !{i32* %iterations.assign}, i64 0, metadata !1580), !dbg !1653 ; [debug line = 43:8] [debug variable = iterations]
  call void @llvm.dbg.value(metadata !{i32* %iterations.assign}, i64 0, metadata !1580), !dbg !1653 ; [debug line = 43:8] [debug variable = iterations]
  call void @llvm.dbg.value(metadata !{i32* %iterations.assign}, i64 0, metadata !1580), !dbg !1653 ; [debug line = 43:8] [debug variable = iterations]
  call void @llvm.dbg.value(metadata !{i32* %iterations.assign}, i64 0, metadata !1580), !dbg !1653 ; [debug line = 43:8] [debug variable = iterations]
  %iterations.assign.load = load volatile i32* %iterations.assign, align 4, !dbg !1653 ; [#uses=1 type=i32] [debug line = 43:8]
  %tmp.2 = icmp slt i32 %i, %iterations.assign.load, !dbg !1653 ; [#uses=1 type=i1] [debug line = 43:8]
  br i1 %tmp.2, label %4, label %.loopexit.loopexit, !dbg !1653 ; [debug line = 43:8]

; <label>:4                                       ; preds = %3
  call void @llvm.dbg.value(metadata !{%struct.ap_uint.3* %controller_finished}, i64 0, metadata !1654), !dbg !1655 ; [debug line = 217:49@44:5] [debug variable = this]
  store volatile i1 false, i1* %controller_finished.addr, align 1, !dbg !1657 ; [debug line = 218:10@44:5]
  store volatile i32 4, i32* %AXI_DMA_SLAVE, align 4, !dbg !1659 ; [debug line = 46:5]
  br label %5, !dbg !1660                         ; [debug line = 47:5]

; <label>:5                                       ; preds = %6, %4
  %AXI_DMA_SLAVE.load.2 = load volatile i32* %AXI_DMA_SLAVE, align 4, !dbg !1660 ; [#uses=1 type=i32] [debug line = 47:5]
  %tmp.3 = and i32 %AXI_DMA_SLAVE.load.2, 4, !dbg !1660 ; [#uses=1 type=i32] [debug line = 47:5]
  %tmp.4 = icmp eq i32 %tmp.3, 0, !dbg !1660      ; [#uses=1 type=i1] [debug line = 47:5]
  br i1 %tmp.4, label %7, label %6, !dbg !1660    ; [debug line = 47:5]

; <label>:6                                       ; preds = %5
  store volatile i32 0, i32* %AXI_DMA_SLAVE, align 4, !dbg !1661 ; [debug line = 48:6]
  br label %5, !dbg !1663                         ; [debug line = 49:5]

; <label>:7                                       ; preds = %5
  %AXI_DMA_SLAVE.load.3 = load volatile i32* %AXI_DMA_SLAVE, align 4, !dbg !1664 ; [#uses=1 type=i32] [debug line = 52:5]
  %tmp.5 = or i32 %AXI_DMA_SLAVE.load.3, 1, !dbg !1664 ; [#uses=1 type=i32] [debug line = 52:5]
  store volatile i32 %tmp.5, i32* %AXI_DMA_SLAVE, align 4, !dbg !1664 ; [debug line = 52:5]
  %AXI_DMA_SLAVE.load.4 = load volatile i32* %AXI_DMA_SLAVE, align 4, !dbg !1665 ; [#uses=1 type=i32] [debug line = 54:5]
  %tmp.6 = or i32 %AXI_DMA_SLAVE.load.4, 4096, !dbg !1665 ; [#uses=1 type=i32] [debug line = 54:5]
  store volatile i32 %tmp.6, i32* %AXI_DMA_SLAVE, align 4, !dbg !1665 ; [debug line = 54:5]
  %AXI_DMA_SLAVE.load.5 = load volatile i32* %AXI_DMA_SLAVE, align 4, !dbg !1666 ; [#uses=1 type=i32] [debug line = 55:5]
  store volatile i32 %AXI_DMA_SLAVE.load.5, i32* %dma_control, align 4, !dbg !1666 ; [debug line = 55:5]
  %AXI_DMA_SLAVE.load.6 = load volatile i32* %AXI_DMA_SLAVE.addr, align 4, !dbg !1648 ; [#uses=1 type=i32] [debug line = 56:5]
  store volatile i32 %AXI_DMA_SLAVE.load.6, i32* %dma_status, align 4, !dbg !1648 ; [debug line = 56:5]
  store volatile i32 %localAddress1, i32* %AXI_DMA_SLAVE.addr.1, align 4, !dbg !1651 ; [debug line = 59:5]
  store volatile i32 %localAddress1, i32* %dma_address, align 4, !dbg !1667 ; [debug line = 60:5]
  call void @llvm.dbg.value(metadata !{i32* %length.assign}, i64 0, metadata !1578), !dbg !1652 ; [debug line = 62:5] [debug variable = length]
  call void @llvm.dbg.value(metadata !{i32* %length.assign}, i64 0, metadata !1578), !dbg !1652 ; [debug line = 62:5] [debug variable = length]
  call void @llvm.dbg.value(metadata !{i32* %length.assign}, i64 0, metadata !1578), !dbg !1652 ; [debug line = 62:5] [debug variable = length]
  call void @llvm.dbg.value(metadata !{i32* %length.assign}, i64 0, metadata !1578), !dbg !1652 ; [debug line = 62:5] [debug variable = length]
  call void @llvm.dbg.value(metadata !{i32* %length.assign}, i64 0, metadata !1578), !dbg !1652 ; [debug line = 62:5] [debug variable = length]
  call void @llvm.dbg.value(metadata !{i32* %length.assign}, i64 0, metadata !1578), !dbg !1652 ; [debug line = 62:5] [debug variable = length]
  call void @llvm.dbg.value(metadata !{i32* %length.assign}, i64 0, metadata !1578), !dbg !1652 ; [debug line = 62:5] [debug variable = length]
  call void @llvm.dbg.value(metadata !{i32* %length.assign}, i64 0, metadata !1578), !dbg !1652 ; [debug line = 62:5] [debug variable = length]
  call void @llvm.dbg.value(metadata !{i32* %length.assign}, i64 0, metadata !1578), !dbg !1652 ; [debug line = 62:5] [debug variable = length]
  call void @llvm.dbg.value(metadata !{i32* %length.assign}, i64 0, metadata !1578), !dbg !1652 ; [debug line = 62:5] [debug variable = length]
  call void @llvm.dbg.value(metadata !{i32* %length.assign}, i64 0, metadata !1578), !dbg !1652 ; [debug line = 62:5] [debug variable = length]
  %length.assign.load.1 = load volatile i32* %length.assign, align 4, !dbg !1652 ; [#uses=1 type=i32] [debug line = 62:5]
  store volatile i32 %length.assign.load.1, i32* %AXI_DMA_SLAVE.addr.2, align 4, !dbg !1652 ; [debug line = 62:5]
  %AXI_DMA_SLAVE.load.7 = load volatile i32* %AXI_DMA_SLAVE, align 4, !dbg !1668 ; [#uses=1 type=i32] [debug line = 63:5]
  store volatile i32 %AXI_DMA_SLAVE.load.7, i32* %dma_control, align 4, !dbg !1668 ; [debug line = 63:5]
  %AXI_DMA_SLAVE.load.8 = load volatile i32* %AXI_DMA_SLAVE.addr, align 4, !dbg !1669 ; [#uses=1 type=i32] [debug line = 64:5]
  store volatile i32 %AXI_DMA_SLAVE.load.8, i32* %dma_status, align 4, !dbg !1669 ; [debug line = 64:5]
  %localAddress.2 = add i32 %localAddress1, 4, !dbg !1670 ; [#uses=1 type=i32] [debug line = 65:5]
  call void @llvm.dbg.value(metadata !{i32 %localAddress.2}, i64 0, metadata !1645), !dbg !1670 ; [debug line = 65:5] [debug variable = localAddress]
  call void @llvm.dbg.value(metadata !{%struct.ap_uint.3* %fabric_interrupt_read_finished}, i64 0, metadata !1671), !dbg !1672 ; [debug line = 41:82@67:54] [debug variable = op]
  call void @llvm.dbg.value(metadata !{%struct.ap_uint.3* %fabric_interrupt_read_finished}, i64 0, metadata !1674), !dbg !1675 ; [debug line = 41:82@41:103@67:54] [debug variable = op]
  %local.V.2 = load volatile i1* %fabric_interrupt_read_finished.addr, align 1, !dbg !1677 ; [#uses=1 type=i1] [debug line = 41:88@41:103@67:54]
  call void @llvm.dbg.value(metadata !{i1 %local.V.2}, i64 0, metadata !1679), !dbg !1677 ; [debug line = 41:88@41:103@67:54] [debug variable = local.V]
  br label %8, !dbg !1687                         ; [debug line = 76:5]

; <label>:8                                       ; preds = %9, %7
  %__Val2__.1 = phi i1 [ %local.V.2, %7 ], [ %local.V.3, %9 ] ; [#uses=1 type=i1]
  call void @llvm.dbg.value(metadata !{i1 %__Val2__.1}, i64 0, metadata !1688), !dbg !1691 ; [debug line = 1623:163@76:12] [debug variable = __Val2__]
  %__Result__.1 = call i1 @llvm.part.select.i1(i1 %__Val2__.1, i32 0, i32 0) nounwind, !dbg !1693 ; [#uses=1 type=i1] [debug line = 1623:165@76:12]
  call void @llvm.dbg.value(metadata !{i1 %__Result__.1}, i64 0, metadata !1694), !dbg !1693 ; [debug line = 1623:165@76:12] [debug variable = __Result__]
  br i1 %__Result__.1, label %10, label %9, !dbg !1692 ; [debug line = 76:12]

; <label>:9                                       ; preds = %8
  call void @llvm.dbg.value(metadata !{%struct.ap_uint.3* %fabric_interrupt_read_finished}, i64 0, metadata !1671), !dbg !1695 ; [debug line = 41:82@77:6] [debug variable = op]
  call void @llvm.dbg.value(metadata !{%struct.ap_uint.3* %fabric_interrupt_read_finished}, i64 0, metadata !1674), !dbg !1698 ; [debug line = 41:82@41:103@77:6] [debug variable = op]
  %local.V.3 = load volatile i1* %fabric_interrupt_read_finished.addr, align 1, !dbg !1700 ; [#uses=1 type=i1] [debug line = 41:88@41:103@77:6]
  call void @llvm.dbg.value(metadata !{i1 %local.V.3}, i64 0, metadata !1679), !dbg !1701 ; [debug line = 126:10@77:6] [debug variable = local.V]
  br label %8, !dbg !1703                         ; [debug line = 79:5]

; <label>:10                                      ; preds = %8
  call void @llvm.dbg.value(metadata !{%struct.ap_uint.3* %controller_finished}, i64 0, metadata !1654), !dbg !1704 ; [debug line = 217:49@80:5] [debug variable = this]
  store volatile i1 true, i1* %controller_finished.addr, align 1, !dbg !1706 ; [debug line = 218:10@80:5]
  %i.1 = add nsw i32 %i, 1, !dbg !1707            ; [#uses=1 type=i32] [debug line = 43:29]
  call void @llvm.dbg.value(metadata !{i32 %i.1}, i64 0, metadata !1708), !dbg !1707 ; [debug line = 43:29] [debug variable = i]
  br label %3, !dbg !1707                         ; [debug line = 43:29]

; <label>:11                                      ; preds = %1
  %AXI_DMA_SLAVE.addr.3 = getelementptr inbounds i32* %AXI_DMA_SLAVE, i64 12, !dbg !1709 ; [#uses=4 type=i32*] [debug line = 86:4]
  %AXI_DMA_SLAVE.load = load volatile i32* %AXI_DMA_SLAVE.addr.3, align 4, !dbg !1709 ; [#uses=1 type=i32] [debug line = 86:4]
  %tmp = or i32 %AXI_DMA_SLAVE.load, 1, !dbg !1709 ; [#uses=1 type=i32] [debug line = 86:4]
  store volatile i32 %tmp, i32* %AXI_DMA_SLAVE.addr.3, align 4, !dbg !1709 ; [debug line = 86:4]
  %AXI_DMA_SLAVE.load.1 = load volatile i32* %AXI_DMA_SLAVE.addr.3, align 4, !dbg !1711 ; [#uses=1 type=i32] [debug line = 88:4]
  %tmp.1 = or i32 %AXI_DMA_SLAVE.load.1, 4096, !dbg !1711 ; [#uses=1 type=i32] [debug line = 88:4]
  store volatile i32 %tmp.1, i32* %AXI_DMA_SLAVE.addr.3, align 4, !dbg !1711 ; [debug line = 88:4]
  call void @llvm.dbg.value(metadata !{i32* %startAddress.assign}, i64 0, metadata !1574), !dbg !1712 ; [debug line = 90:4] [debug variable = startAddress]
  call void @llvm.dbg.value(metadata !{i32* %startAddress.assign}, i64 0, metadata !1574), !dbg !1712 ; [debug line = 90:4] [debug variable = startAddress]
  call void @llvm.dbg.value(metadata !{i32* %startAddress.assign}, i64 0, metadata !1574), !dbg !1712 ; [debug line = 90:4] [debug variable = startAddress]
  call void @llvm.dbg.value(metadata !{i32* %startAddress.assign}, i64 0, metadata !1574), !dbg !1712 ; [debug line = 90:4] [debug variable = startAddress]
  call void @llvm.dbg.value(metadata !{i32* %startAddress.assign}, i64 0, metadata !1574), !dbg !1712 ; [debug line = 90:4] [debug variable = startAddress]
  call void @llvm.dbg.value(metadata !{i32* %startAddress.assign}, i64 0, metadata !1574), !dbg !1712 ; [debug line = 90:4] [debug variable = startAddress]
  call void @llvm.dbg.value(metadata !{i32* %startAddress.assign}, i64 0, metadata !1574), !dbg !1712 ; [debug line = 90:4] [debug variable = startAddress]
  call void @llvm.dbg.value(metadata !{i32* %startAddress.assign}, i64 0, metadata !1574), !dbg !1712 ; [debug line = 90:4] [debug variable = startAddress]
  call void @llvm.dbg.value(metadata !{i32* %startAddress.assign}, i64 0, metadata !1574), !dbg !1712 ; [debug line = 90:4] [debug variable = startAddress]
  call void @llvm.dbg.value(metadata !{i32* %startAddress.assign}, i64 0, metadata !1574), !dbg !1712 ; [debug line = 90:4] [debug variable = startAddress]
  call void @llvm.dbg.value(metadata !{i32* %startAddress.assign}, i64 0, metadata !1574), !dbg !1712 ; [debug line = 90:4] [debug variable = startAddress]
  %startAddress.assign.load = load volatile i32* %startAddress.assign, align 4, !dbg !1712 ; [#uses=1 type=i32] [debug line = 90:4]
  %AXI_DMA_SLAVE.addr.4 = getelementptr inbounds i32* %AXI_DMA_SLAVE, i64 18, !dbg !1712 ; [#uses=1 type=i32*] [debug line = 90:4]
  store volatile i32 %startAddress.assign.load, i32* %AXI_DMA_SLAVE.addr.4, align 4, !dbg !1712 ; [debug line = 90:4]
  call void @llvm.dbg.value(metadata !{i32* %length.assign}, i64 0, metadata !1578), !dbg !1713 ; [debug line = 92:4] [debug variable = length]
  call void @llvm.dbg.value(metadata !{i32* %length.assign}, i64 0, metadata !1578), !dbg !1713 ; [debug line = 92:4] [debug variable = length]
  call void @llvm.dbg.value(metadata !{i32* %length.assign}, i64 0, metadata !1578), !dbg !1713 ; [debug line = 92:4] [debug variable = length]
  call void @llvm.dbg.value(metadata !{i32* %length.assign}, i64 0, metadata !1578), !dbg !1713 ; [debug line = 92:4] [debug variable = length]
  call void @llvm.dbg.value(metadata !{i32* %length.assign}, i64 0, metadata !1578), !dbg !1713 ; [debug line = 92:4] [debug variable = length]
  call void @llvm.dbg.value(metadata !{i32* %length.assign}, i64 0, metadata !1578), !dbg !1713 ; [debug line = 92:4] [debug variable = length]
  call void @llvm.dbg.value(metadata !{i32* %length.assign}, i64 0, metadata !1578), !dbg !1713 ; [debug line = 92:4] [debug variable = length]
  call void @llvm.dbg.value(metadata !{i32* %length.assign}, i64 0, metadata !1578), !dbg !1713 ; [debug line = 92:4] [debug variable = length]
  call void @llvm.dbg.value(metadata !{i32* %length.assign}, i64 0, metadata !1578), !dbg !1713 ; [debug line = 92:4] [debug variable = length]
  call void @llvm.dbg.value(metadata !{i32* %length.assign}, i64 0, metadata !1578), !dbg !1713 ; [debug line = 92:4] [debug variable = length]
  call void @llvm.dbg.value(metadata !{i32* %length.assign}, i64 0, metadata !1578), !dbg !1713 ; [debug line = 92:4] [debug variable = length]
  %length.assign.load = load volatile i32* %length.assign, align 4, !dbg !1713 ; [#uses=1 type=i32] [debug line = 92:4]
  %AXI_DMA_SLAVE.addr.5 = getelementptr inbounds i32* %AXI_DMA_SLAVE, i64 22, !dbg !1713 ; [#uses=1 type=i32*] [debug line = 92:4]
  store volatile i32 %length.assign.load, i32* %AXI_DMA_SLAVE.addr.5, align 4, !dbg !1713 ; [debug line = 92:4]
  call void @llvm.dbg.value(metadata !{%struct.ap_uint.3* %fabric_interrupt_write_finished}, i64 0, metadata !1671), !dbg !1714 ; [debug line = 41:82@95:54] [debug variable = op]
  call void @llvm.dbg.value(metadata !{%struct.ap_uint.3* %fabric_interrupt_write_finished}, i64 0, metadata !1674), !dbg !1716 ; [debug line = 41:82@41:103@95:54] [debug variable = op]
  %local.V = load volatile i1* %fabric_interrupt_write_finished.addr, align 1, !dbg !1718 ; [#uses=1 type=i1] [debug line = 41:88@41:103@95:54]
  call void @llvm.dbg.value(metadata !{i1 %local.V}, i64 0, metadata !1719), !dbg !1718 ; [debug line = 41:88@41:103@95:54] [debug variable = local.V]
  br label %12, !dbg !1721                        ; [debug line = 97:4]

; <label>:12                                      ; preds = %13, %11
  %__Val2__ = phi i1 [ %local.V, %11 ], [ %local.V.1, %13 ] ; [#uses=1 type=i1]
  call void @llvm.dbg.value(metadata !{i1 %__Val2__}, i64 0, metadata !1688), !dbg !1722 ; [debug line = 1623:163@97:11] [debug variable = __Val2__]
  %__Result__ = call i1 @llvm.part.select.i1(i1 %__Val2__, i32 0, i32 0) nounwind, !dbg !1724 ; [#uses=1 type=i1] [debug line = 1623:165@97:11]
  call void @llvm.dbg.value(metadata !{i1 %__Result__}, i64 0, metadata !1694), !dbg !1724 ; [debug line = 1623:165@97:11] [debug variable = __Result__]
  br i1 %__Result__, label %14, label %13, !dbg !1723 ; [debug line = 97:11]

; <label>:13                                      ; preds = %12
  call void @llvm.dbg.value(metadata !{%struct.ap_uint.3* %fabric_interrupt_write_finished}, i64 0, metadata !1671), !dbg !1725 ; [debug line = 41:82@98:5] [debug variable = op]
  call void @llvm.dbg.value(metadata !{%struct.ap_uint.3* %fabric_interrupt_write_finished}, i64 0, metadata !1674), !dbg !1728 ; [debug line = 41:82@41:103@98:5] [debug variable = op]
  %local.V.1 = load volatile i1* %fabric_interrupt_write_finished.addr, align 1, !dbg !1730 ; [#uses=1 type=i1] [debug line = 41:88@41:103@98:5]
  call void @llvm.dbg.value(metadata !{i1 %local.V.1}, i64 0, metadata !1719), !dbg !1731 ; [debug line = 126:10@98:5] [debug variable = local.V]
  br label %12, !dbg !1732                        ; [debug line = 100:4]

; <label>:14                                      ; preds = %12
  call void @llvm.dbg.value(metadata !{%struct.ap_uint.3* %controller_finished}, i64 0, metadata !1654), !dbg !1733 ; [debug line = 217:49@101:4] [debug variable = this]
  store volatile i1 true, i1* %controller_finished.addr, align 1, !dbg !1735 ; [debug line = 218:10@101:4]
  br label %.loopexit

.loopexit.loopexit:                               ; preds = %3
  br label %.loopexit

.loopexit:                                        ; preds = %.loopexit.loopexit, %14
  br label %._crit_edge, !dbg !1736               ; [debug line = 107:2]

._crit_edge:                                      ; preds = %.loopexit, %0
  ret void, !dbg !1737                            ; [debug line = 109:1]
}

; [#uses=4]
declare void @llvm.dbg.declare(metadata, metadata) nounwind readnone

; [#uses=13]
declare void @_ssdm_op_SpecWire(...) nounwind

; [#uses=2]
declare i1 @llvm.part.select.i1(i1, i32, i32) nounwind readnone

; [#uses=3]
declare void @_ssdm_op_SpecExt(...) nounwind

; [#uses=146]
declare void @llvm.dbg.value(metadata, i64, metadata) nounwind readnone

; [#uses=1]
declare void @_ssdm_op_SpecTopModule(...)

; [#uses=0]
declare void @__dtor__ZStL8__ioinit() nounwind section ".text.startup"

; [#uses=1]
declare void @_GLOBAL__I_a() nounwind section ".text.startup"

; [#uses=0]
declare i32 @_ssdm_op_SpecLoopBegin(...)

; [#uses=0]
declare i32 @_ssdm_op_SpecRegionBegin(...)

; [#uses=0]
declare i32 @_ssdm_op_SpecRegionEnd(...)

; [#uses=0]
declare i32 @_ssdm_op_SpecRegionEnd.restore(...)

!llvm.dbg.cu = !{!0}

!0 = metadata !{i32 786449, i32 0, i32 4, metadata !"/D/xilinx_workspace/PL_AXI_DMA_Controller/solution1/.autopilot/db/PL_AXI_DMA_Controller.pragma.2.cpp", metadata !"/D/xilinx_workspace", metadata !"clang version 3.1 ", i1 true, i1 false, metadata !"", i32 0, metadata !1, metadata !835, metadata !837, metadata !1511} ; [ DW_TAG_compile_unit ]
!1 = metadata !{metadata !2}
!2 = metadata !{metadata !3, metadata !26, metadata !33, metadata !42, metadata !48, metadata !828}
!3 = metadata !{i32 786436, metadata !4, metadata !"_Ios_Fmtflags", metadata !5, i32 52, i64 17, i64 32, i32 0, i32 0, null, metadata !6, i32 0, i32 0} ; [ DW_TAG_enumeration_type ]
!4 = metadata !{i32 786489, null, metadata !"std", metadata !5, i32 44} ; [ DW_TAG_namespace ]
!5 = metadata !{i32 786473, metadata !"/Xilinx/Vivado_HLS/2014.1/lnx64/tools/gcc/lib/gcc/x86_64-unknown-linux-gnu/4.6.3/../../../../include/c++/4.6.3/bits/ios_base.h", metadata !"/D/xilinx_workspace", null} ; [ DW_TAG_file_type ]
!6 = metadata !{metadata !7, metadata !8, metadata !9, metadata !10, metadata !11, metadata !12, metadata !13, metadata !14, metadata !15, metadata !16, metadata !17, metadata !18, metadata !19, metadata !20, metadata !21, metadata !22, metadata !23, metadata !24, metadata !25}
!7 = metadata !{i32 786472, metadata !"_S_boolalpha", i64 1} ; [ DW_TAG_enumerator ]
!8 = metadata !{i32 786472, metadata !"_S_dec", i64 2} ; [ DW_TAG_enumerator ]
!9 = metadata !{i32 786472, metadata !"_S_fixed", i64 4} ; [ DW_TAG_enumerator ]
!10 = metadata !{i32 786472, metadata !"_S_hex", i64 8} ; [ DW_TAG_enumerator ]
!11 = metadata !{i32 786472, metadata !"_S_internal", i64 16} ; [ DW_TAG_enumerator ]
!12 = metadata !{i32 786472, metadata !"_S_left", i64 32} ; [ DW_TAG_enumerator ]
!13 = metadata !{i32 786472, metadata !"_S_oct", i64 64} ; [ DW_TAG_enumerator ]
!14 = metadata !{i32 786472, metadata !"_S_right", i64 128} ; [ DW_TAG_enumerator ]
!15 = metadata !{i32 786472, metadata !"_S_scientific", i64 256} ; [ DW_TAG_enumerator ]
!16 = metadata !{i32 786472, metadata !"_S_showbase", i64 512} ; [ DW_TAG_enumerator ]
!17 = metadata !{i32 786472, metadata !"_S_showpoint", i64 1024} ; [ DW_TAG_enumerator ]
!18 = metadata !{i32 786472, metadata !"_S_showpos", i64 2048} ; [ DW_TAG_enumerator ]
!19 = metadata !{i32 786472, metadata !"_S_skipws", i64 4096} ; [ DW_TAG_enumerator ]
!20 = metadata !{i32 786472, metadata !"_S_unitbuf", i64 8192} ; [ DW_TAG_enumerator ]
!21 = metadata !{i32 786472, metadata !"_S_uppercase", i64 16384} ; [ DW_TAG_enumerator ]
!22 = metadata !{i32 786472, metadata !"_S_adjustfield", i64 176} ; [ DW_TAG_enumerator ]
!23 = metadata !{i32 786472, metadata !"_S_basefield", i64 74} ; [ DW_TAG_enumerator ]
!24 = metadata !{i32 786472, metadata !"_S_floatfield", i64 260} ; [ DW_TAG_enumerator ]
!25 = metadata !{i32 786472, metadata !"_S_ios_fmtflags_end", i64 65536} ; [ DW_TAG_enumerator ]
!26 = metadata !{i32 786436, metadata !4, metadata !"_Ios_Iostate", metadata !5, i32 144, i64 17, i64 32, i32 0, i32 0, null, metadata !27, i32 0, i32 0} ; [ DW_TAG_enumeration_type ]
!27 = metadata !{metadata !28, metadata !29, metadata !30, metadata !31, metadata !32}
!28 = metadata !{i32 786472, metadata !"_S_goodbit", i64 0} ; [ DW_TAG_enumerator ]
!29 = metadata !{i32 786472, metadata !"_S_badbit", i64 1} ; [ DW_TAG_enumerator ]
!30 = metadata !{i32 786472, metadata !"_S_eofbit", i64 2} ; [ DW_TAG_enumerator ]
!31 = metadata !{i32 786472, metadata !"_S_failbit", i64 4} ; [ DW_TAG_enumerator ]
!32 = metadata !{i32 786472, metadata !"_S_ios_iostate_end", i64 65536} ; [ DW_TAG_enumerator ]
!33 = metadata !{i32 786436, metadata !4, metadata !"_Ios_Openmode", metadata !5, i32 104, i64 17, i64 32, i32 0, i32 0, null, metadata !34, i32 0, i32 0} ; [ DW_TAG_enumeration_type ]
!34 = metadata !{metadata !35, metadata !36, metadata !37, metadata !38, metadata !39, metadata !40, metadata !41}
!35 = metadata !{i32 786472, metadata !"_S_app", i64 1} ; [ DW_TAG_enumerator ]
!36 = metadata !{i32 786472, metadata !"_S_ate", i64 2} ; [ DW_TAG_enumerator ]
!37 = metadata !{i32 786472, metadata !"_S_bin", i64 4} ; [ DW_TAG_enumerator ]
!38 = metadata !{i32 786472, metadata !"_S_in", i64 8} ; [ DW_TAG_enumerator ]
!39 = metadata !{i32 786472, metadata !"_S_out", i64 16} ; [ DW_TAG_enumerator ]
!40 = metadata !{i32 786472, metadata !"_S_trunc", i64 32} ; [ DW_TAG_enumerator ]
!41 = metadata !{i32 786472, metadata !"_S_ios_openmode_end", i64 65536} ; [ DW_TAG_enumerator ]
!42 = metadata !{i32 786436, metadata !4, metadata !"_Ios_Seekdir", metadata !5, i32 182, i64 17, i64 32, i32 0, i32 0, null, metadata !43, i32 0, i32 0} ; [ DW_TAG_enumeration_type ]
!43 = metadata !{metadata !44, metadata !45, metadata !46, metadata !47}
!44 = metadata !{i32 786472, metadata !"_S_beg", i64 0} ; [ DW_TAG_enumerator ]
!45 = metadata !{i32 786472, metadata !"_S_cur", i64 1} ; [ DW_TAG_enumerator ]
!46 = metadata !{i32 786472, metadata !"_S_end", i64 2} ; [ DW_TAG_enumerator ]
!47 = metadata !{i32 786472, metadata !"_S_ios_seekdir_end", i64 65536} ; [ DW_TAG_enumerator ]
!48 = metadata !{i32 786436, metadata !49, metadata !"event", metadata !5, i32 420, i64 2, i64 2, i32 0, i32 0, null, metadata !824, i32 0, i32 0} ; [ DW_TAG_enumeration_type ]
!49 = metadata !{i32 786434, metadata !4, metadata !"ios_base", metadata !5, i32 200, i64 1728, i64 64, i32 0, i32 0, null, metadata !50, i32 0, metadata !49, null} ; [ DW_TAG_class_type ]
!50 = metadata !{metadata !51, metadata !57, metadata !65, metadata !66, metadata !68, metadata !70, metadata !71, metadata !74, metadata !86, metadata !90, metadata !91, metadata !93, metadata !751, metadata !760, metadata !763, metadata !766, metadata !770, metadata !771, metadata !776, metadata !779, metadata !780, metadata !783, metadata !786, metadata !789, metadata !792, metadata !793, metadata !794, metadata !797, metadata !800, metadata !803, metadata !806, metadata !807, metadata !811, metadata !815, metadata !816, metadata !817, metadata !821}
!51 = metadata !{i32 786445, metadata !5, metadata !"_vptr$ios_base", metadata !5, i32 0, i64 64, i64 0, i64 0, i32 0, metadata !52} ; [ DW_TAG_member ]
!52 = metadata !{i32 786447, null, metadata !"", null, i32 0, i64 64, i64 0, i64 0, i32 0, metadata !53} ; [ DW_TAG_pointer_type ]
!53 = metadata !{i32 786447, null, metadata !"__vtbl_ptr_type", null, i32 0, i64 64, i64 0, i64 0, i32 0, metadata !54} ; [ DW_TAG_pointer_type ]
!54 = metadata !{i32 786453, i32 0, metadata !"", i32 0, i32 0, i64 0, i64 0, i64 0, i32 0, null, metadata !55, i32 0, i32 0} ; [ DW_TAG_subroutine_type ]
!55 = metadata !{metadata !56}
!56 = metadata !{i32 786468, null, metadata !"int", null, i32 0, i64 32, i64 32, i64 0, i32 0, i32 5} ; [ DW_TAG_base_type ]
!57 = metadata !{i32 786445, metadata !49, metadata !"_M_precision", metadata !5, i32 453, i64 64, i64 64, i64 64, i32 2, metadata !58} ; [ DW_TAG_member ]
!58 = metadata !{i32 786454, metadata !59, metadata !"streamsize", metadata !5, i32 99, i64 0, i64 0, i64 0, i32 0, metadata !61} ; [ DW_TAG_typedef ]
!59 = metadata !{i32 786489, null, metadata !"std", metadata !60, i32 69} ; [ DW_TAG_namespace ]
!60 = metadata !{i32 786473, metadata !"/Xilinx/Vivado_HLS/2014.1/lnx64/tools/gcc/lib/gcc/x86_64-unknown-linux-gnu/4.6.3/../../../../include/c++/4.6.3/bits/postypes.h", metadata !"/D/xilinx_workspace", null} ; [ DW_TAG_file_type ]
!61 = metadata !{i32 786454, metadata !62, metadata !"ptrdiff_t", metadata !5, i32 156, i64 0, i64 0, i64 0, i32 0, metadata !64} ; [ DW_TAG_typedef ]
!62 = metadata !{i32 786489, null, metadata !"std", metadata !63, i32 153} ; [ DW_TAG_namespace ]
!63 = metadata !{i32 786473, metadata !"/Xilinx/Vivado_HLS/2014.1/lnx64/tools/gcc/lib/gcc/x86_64-unknown-linux-gnu/4.6.3/../../../../include/c++/4.6.3/x86_64-unknown-linux-gnu/bits/c++config.h", metadata !"/D/xilinx_workspace", null} ; [ DW_TAG_file_type ]
!64 = metadata !{i32 786468, null, metadata !"long int", null, i32 0, i64 64, i64 64, i64 0, i32 0, i32 5} ; [ DW_TAG_base_type ]
!65 = metadata !{i32 786445, metadata !49, metadata !"_M_width", metadata !5, i32 454, i64 64, i64 64, i64 128, i32 2, metadata !58} ; [ DW_TAG_member ]
!66 = metadata !{i32 786445, metadata !49, metadata !"_M_flags", metadata !5, i32 455, i64 17, i64 32, i64 192, i32 2, metadata !67} ; [ DW_TAG_member ]
!67 = metadata !{i32 786454, metadata !49, metadata !"fmtflags", metadata !5, i32 256, i64 0, i64 0, i64 0, i32 0, metadata !3} ; [ DW_TAG_typedef ]
!68 = metadata !{i32 786445, metadata !49, metadata !"_M_exception", metadata !5, i32 456, i64 17, i64 32, i64 224, i32 2, metadata !69} ; [ DW_TAG_member ]
!69 = metadata !{i32 786454, metadata !49, metadata !"iostate", metadata !5, i32 331, i64 0, i64 0, i64 0, i32 0, metadata !26} ; [ DW_TAG_typedef ]
!70 = metadata !{i32 786445, metadata !49, metadata !"_M_streambuf_state", metadata !5, i32 457, i64 17, i64 32, i64 256, i32 2, metadata !69} ; [ DW_TAG_member ]
!71 = metadata !{i32 786445, metadata !49, metadata !"_M_callbacks", metadata !5, i32 491, i64 64, i64 64, i64 320, i32 2, metadata !72} ; [ DW_TAG_member ]
!72 = metadata !{i32 786447, null, metadata !"", null, i32 0, i64 64, i64 64, i64 0, i32 0, metadata !73} ; [ DW_TAG_pointer_type ]
!73 = metadata !{i32 786434, null, metadata !"_Callback_list", metadata !5, i32 461, i32 0, i32 0, i32 0, i32 4, null, null, i32 0} ; [ DW_TAG_class_type ]
!74 = metadata !{i32 786445, metadata !49, metadata !"_M_word_zero", metadata !5, i32 508, i64 128, i64 64, i64 384, i32 2, metadata !75} ; [ DW_TAG_member ]
!75 = metadata !{i32 786434, metadata !49, metadata !"_Words", metadata !5, i32 500, i64 128, i64 64, i32 0, i32 0, null, metadata !76, i32 0, null, null} ; [ DW_TAG_class_type ]
!76 = metadata !{metadata !77, metadata !79, metadata !80}
!77 = metadata !{i32 786445, metadata !75, metadata !"_M_pword", metadata !5, i32 502, i64 64, i64 64, i64 0, i32 0, metadata !78} ; [ DW_TAG_member ]
!78 = metadata !{i32 786447, null, metadata !"", null, i32 0, i64 64, i64 64, i64 0, i32 0, null} ; [ DW_TAG_pointer_type ]
!79 = metadata !{i32 786445, metadata !75, metadata !"_M_iword", metadata !5, i32 503, i64 64, i64 64, i64 64, i32 0, metadata !64} ; [ DW_TAG_member ]
!80 = metadata !{i32 786478, i32 0, metadata !75, metadata !"_Words", metadata !"_Words", metadata !"", metadata !5, i32 504, metadata !81, i1 false, i1 false, i32 0, i32 0, null, i32 256, i1 false, null, null, i32 0, metadata !84, i32 504} ; [ DW_TAG_subprogram ]
!81 = metadata !{i32 786453, i32 0, metadata !"", i32 0, i32 0, i64 0, i64 0, i64 0, i32 0, null, metadata !82, i32 0, i32 0} ; [ DW_TAG_subroutine_type ]
!82 = metadata !{null, metadata !83}
!83 = metadata !{i32 786447, i32 0, metadata !"", i32 0, i32 0, i64 64, i64 64, i64 0, i32 64, metadata !75} ; [ DW_TAG_pointer_type ]
!84 = metadata !{metadata !85}
!85 = metadata !{i32 786468}                      ; [ DW_TAG_base_type ]
!86 = metadata !{i32 786445, metadata !49, metadata !"_M_local_word", metadata !5, i32 513, i64 1024, i64 64, i64 512, i32 2, metadata !87} ; [ DW_TAG_member ]
!87 = metadata !{i32 786433, null, metadata !"", null, i32 0, i64 1024, i64 64, i32 0, i32 0, metadata !75, metadata !88, i32 0, i32 0} ; [ DW_TAG_array_type ]
!88 = metadata !{metadata !89}
!89 = metadata !{i32 786465, i64 0, i64 7}        ; [ DW_TAG_subrange_type ]
!90 = metadata !{i32 786445, metadata !49, metadata !"_M_word_size", metadata !5, i32 516, i64 32, i64 32, i64 1536, i32 2, metadata !56} ; [ DW_TAG_member ]
!91 = metadata !{i32 786445, metadata !49, metadata !"_M_word", metadata !5, i32 517, i64 64, i64 64, i64 1600, i32 2, metadata !92} ; [ DW_TAG_member ]
!92 = metadata !{i32 786447, null, metadata !"", null, i32 0, i64 64, i64 64, i64 0, i32 0, metadata !75} ; [ DW_TAG_pointer_type ]
!93 = metadata !{i32 786445, metadata !49, metadata !"_M_ios_locale", metadata !5, i32 523, i64 64, i64 64, i64 1664, i32 2, metadata !94} ; [ DW_TAG_member ]
!94 = metadata !{i32 786434, metadata !95, metadata !"locale", metadata !96, i32 63, i64 64, i64 64, i32 0, i32 0, null, metadata !97, i32 0, null, null} ; [ DW_TAG_class_type ]
!95 = metadata !{i32 786489, null, metadata !"std", metadata !96, i32 44} ; [ DW_TAG_namespace ]
!96 = metadata !{i32 786473, metadata !"/Xilinx/Vivado_HLS/2014.1/lnx64/tools/gcc/lib/gcc/x86_64-unknown-linux-gnu/4.6.3/../../../../include/c++/4.6.3/bits/locale_classes.h", metadata !"/D/xilinx_workspace", null} ; [ DW_TAG_file_type ]
!97 = metadata !{metadata !98, metadata !261, metadata !265, metadata !270, metadata !273, metadata !276, metadata !279, metadata !280, metadata !283, metadata !730, metadata !733, metadata !734, metadata !737, metadata !740, metadata !743, metadata !744, metadata !745, metadata !748, metadata !749, metadata !750}
!98 = metadata !{i32 786445, metadata !94, metadata !"_M_impl", metadata !96, i32 280, i64 64, i64 64, i64 0, i32 1, metadata !99} ; [ DW_TAG_member ]
!99 = metadata !{i32 786447, null, metadata !"", null, i32 0, i64 64, i64 64, i64 0, i32 0, metadata !100} ; [ DW_TAG_pointer_type ]
!100 = metadata !{i32 786434, metadata !94, metadata !"_Impl", metadata !96, i32 475, i64 320, i64 64, i32 0, i32 0, null, metadata !101, i32 0, null, null} ; [ DW_TAG_class_type ]
!101 = metadata !{metadata !102, metadata !104, metadata !190, metadata !191, metadata !192, metadata !195, metadata !199, metadata !200, metadata !205, metadata !208, metadata !211, metadata !212, metadata !215, metadata !216, metadata !220, metadata !225, metadata !250, metadata !253, metadata !256, metadata !259, metadata !260}
!102 = metadata !{i32 786445, metadata !100, metadata !"_M_refcount", metadata !96, i32 495, i64 32, i64 32, i64 0, i32 1, metadata !103} ; [ DW_TAG_member ]
!103 = metadata !{i32 786454, null, metadata !"_Atomic_word", metadata !96, i32 32, i64 0, i64 0, i64 0, i32 0, metadata !56} ; [ DW_TAG_typedef ]
!104 = metadata !{i32 786445, metadata !100, metadata !"_M_facets", metadata !96, i32 496, i64 64, i64 64, i64 64, i32 1, metadata !105} ; [ DW_TAG_member ]
!105 = metadata !{i32 786447, null, metadata !"", null, i32 0, i64 64, i64 64, i64 0, i32 0, metadata !106} ; [ DW_TAG_pointer_type ]
!106 = metadata !{i32 786447, null, metadata !"", null, i32 0, i64 64, i64 64, i64 0, i32 0, metadata !107} ; [ DW_TAG_pointer_type ]
!107 = metadata !{i32 786470, null, metadata !"", null, i32 0, i64 0, i64 0, i64 0, i32 0, metadata !108} ; [ DW_TAG_const_type ]
!108 = metadata !{i32 786434, metadata !94, metadata !"facet", metadata !96, i32 338, i64 128, i64 64, i32 0, i32 0, null, metadata !109, i32 0, metadata !108, null} ; [ DW_TAG_class_type ]
!109 = metadata !{metadata !110, metadata !111, metadata !112, metadata !115, metadata !122, metadata !125, metadata !160, metadata !163, metadata !166, metadata !169, metadata !172, metadata !175, metadata !179, metadata !180, metadata !184, metadata !188, metadata !189}
!110 = metadata !{i32 786445, metadata !96, metadata !"_vptr$facet", metadata !96, i32 0, i64 64, i64 0, i64 0, i32 0, metadata !52} ; [ DW_TAG_member ]
!111 = metadata !{i32 786445, metadata !108, metadata !"_M_refcount", metadata !96, i32 344, i64 32, i64 32, i64 64, i32 1, metadata !103} ; [ DW_TAG_member ]
!112 = metadata !{i32 786478, i32 0, metadata !108, metadata !"_S_initialize_once", metadata !"_S_initialize_once", metadata !"_ZNSt6locale5facet18_S_initialize_onceEv", metadata !96, i32 357, metadata !113, i1 false, i1 false, i32 0, i32 0, null, i32 257, i1 false, null, null, i32 0, metadata !84, i32 357} ; [ DW_TAG_subprogram ]
!113 = metadata !{i32 786453, i32 0, metadata !"", i32 0, i32 0, i64 0, i64 0, i64 0, i32 0, null, metadata !114, i32 0, i32 0} ; [ DW_TAG_subroutine_type ]
!114 = metadata !{null}
!115 = metadata !{i32 786478, i32 0, metadata !108, metadata !"facet", metadata !"facet", metadata !"", metadata !96, i32 370, metadata !116, i1 false, i1 false, i32 0, i32 0, null, i32 386, i1 false, null, null, i32 0, metadata !84, i32 370} ; [ DW_TAG_subprogram ]
!116 = metadata !{i32 786453, i32 0, metadata !"", i32 0, i32 0, i64 0, i64 0, i64 0, i32 0, null, metadata !117, i32 0, i32 0} ; [ DW_TAG_subroutine_type ]
!117 = metadata !{null, metadata !118, metadata !119}
!118 = metadata !{i32 786447, i32 0, metadata !"", i32 0, i32 0, i64 64, i64 64, i64 0, i32 64, metadata !108} ; [ DW_TAG_pointer_type ]
!119 = metadata !{i32 786454, metadata !62, metadata !"size_t", metadata !120, i32 155, i64 0, i64 0, i64 0, i32 0, metadata !121} ; [ DW_TAG_typedef ]
!120 = metadata !{i32 786473, metadata !"/Xilinx/Vivado_HLS/2014.1/lnx64/tools/gcc/lib/gcc/x86_64-unknown-linux-gnu/4.6.3/../../../../include/c++/4.6.3/bits/basic_string.h", metadata !"/D/xilinx_workspace", null} ; [ DW_TAG_file_type ]
!121 = metadata !{i32 786468, null, metadata !"long unsigned int", null, i32 0, i64 64, i64 64, i64 0, i32 0, i32 7} ; [ DW_TAG_base_type ]
!122 = metadata !{i32 786478, i32 0, metadata !108, metadata !"~facet", metadata !"~facet", metadata !"", metadata !96, i32 375, metadata !123, i1 false, i1 false, i32 1, i32 0, metadata !108, i32 258, i1 false, null, null, i32 0, metadata !84, i32 375} ; [ DW_TAG_subprogram ]
!123 = metadata !{i32 786453, i32 0, metadata !"", i32 0, i32 0, i64 0, i64 0, i64 0, i32 0, null, metadata !124, i32 0, i32 0} ; [ DW_TAG_subroutine_type ]
!124 = metadata !{null, metadata !118}
!125 = metadata !{i32 786478, i32 0, metadata !108, metadata !"_S_create_c_locale", metadata !"_S_create_c_locale", metadata !"_ZNSt6locale5facet18_S_create_c_localeERP15__locale_structPKcS2_", metadata !96, i32 378, metadata !126, i1 false, i1 false, i32 0, i32 0, null, i32 258, i1 false, null, null, i32 0, metadata !84, i32 378} ; [ DW_TAG_subprogram ]
!126 = metadata !{i32 786453, i32 0, metadata !"", i32 0, i32 0, i64 0, i64 0, i64 0, i32 0, null, metadata !127, i32 0, i32 0} ; [ DW_TAG_subroutine_type ]
!127 = metadata !{null, metadata !128, metadata !153, metadata !129}
!128 = metadata !{i32 786448, null, null, null, i32 0, i64 0, i64 0, i64 0, i32 0, metadata !129} ; [ DW_TAG_reference_type ]
!129 = metadata !{i32 786454, metadata !130, metadata !"__c_locale", metadata !96, i32 62, i64 0, i64 0, i64 0, i32 0, metadata !132} ; [ DW_TAG_typedef ]
!130 = metadata !{i32 786489, null, metadata !"std", metadata !131, i32 58} ; [ DW_TAG_namespace ]
!131 = metadata !{i32 786473, metadata !"/Xilinx/Vivado_HLS/2014.1/lnx64/tools/gcc/lib/gcc/x86_64-unknown-linux-gnu/4.6.3/../../../../include/c++/4.6.3/x86_64-unknown-linux-gnu/bits/c++locale.h", metadata !"/D/xilinx_workspace", null} ; [ DW_TAG_file_type ]
!132 = metadata !{i32 786454, null, metadata !"__locale_t", metadata !96, i32 39, i64 0, i64 0, i64 0, i32 0, metadata !133} ; [ DW_TAG_typedef ]
!133 = metadata !{i32 786447, null, metadata !"", null, i32 0, i64 64, i64 64, i64 0, i32 0, metadata !134} ; [ DW_TAG_pointer_type ]
!134 = metadata !{i32 786434, null, metadata !"__locale_struct", metadata !135, i32 27, i64 1856, i64 64, i32 0, i32 0, null, metadata !136, i32 0, null, null} ; [ DW_TAG_class_type ]
!135 = metadata !{i32 786473, metadata !"/usr/include/xlocale.h", metadata !"/D/xilinx_workspace", null} ; [ DW_TAG_file_type ]
!136 = metadata !{metadata !137, metadata !143, metadata !147, metadata !150, metadata !151, metadata !156}
!137 = metadata !{i32 786445, metadata !134, metadata !"__locales", metadata !135, i32 30, i64 832, i64 64, i64 0, i32 0, metadata !138} ; [ DW_TAG_member ]
!138 = metadata !{i32 786433, null, metadata !"", null, i32 0, i64 832, i64 64, i32 0, i32 0, metadata !139, metadata !141, i32 0, i32 0} ; [ DW_TAG_array_type ]
!139 = metadata !{i32 786447, null, metadata !"", null, i32 0, i64 64, i64 64, i64 0, i32 0, metadata !140} ; [ DW_TAG_pointer_type ]
!140 = metadata !{i32 786434, null, metadata !"__locale_data", metadata !135, i32 30, i32 0, i32 0, i32 0, i32 4, null, null, i32 0} ; [ DW_TAG_class_type ]
!141 = metadata !{metadata !142}
!142 = metadata !{i32 786465, i64 0, i64 12}      ; [ DW_TAG_subrange_type ]
!143 = metadata !{i32 786445, metadata !134, metadata !"__ctype_b", metadata !135, i32 33, i64 64, i64 64, i64 832, i32 0, metadata !144} ; [ DW_TAG_member ]
!144 = metadata !{i32 786447, null, metadata !"", null, i32 0, i64 64, i64 64, i64 0, i32 0, metadata !145} ; [ DW_TAG_pointer_type ]
!145 = metadata !{i32 786470, null, metadata !"", null, i32 0, i64 0, i64 0, i64 0, i32 0, metadata !146} ; [ DW_TAG_const_type ]
!146 = metadata !{i32 786468, null, metadata !"unsigned short", null, i32 0, i64 16, i64 16, i64 0, i32 0, i32 7} ; [ DW_TAG_base_type ]
!147 = metadata !{i32 786445, metadata !134, metadata !"__ctype_tolower", metadata !135, i32 34, i64 64, i64 64, i64 896, i32 0, metadata !148} ; [ DW_TAG_member ]
!148 = metadata !{i32 786447, null, metadata !"", null, i32 0, i64 64, i64 64, i64 0, i32 0, metadata !149} ; [ DW_TAG_pointer_type ]
!149 = metadata !{i32 786470, null, metadata !"", null, i32 0, i64 0, i64 0, i64 0, i32 0, metadata !56} ; [ DW_TAG_const_type ]
!150 = metadata !{i32 786445, metadata !134, metadata !"__ctype_toupper", metadata !135, i32 35, i64 64, i64 64, i64 960, i32 0, metadata !148} ; [ DW_TAG_member ]
!151 = metadata !{i32 786445, metadata !134, metadata !"__names", metadata !135, i32 38, i64 832, i64 64, i64 1024, i32 0, metadata !152} ; [ DW_TAG_member ]
!152 = metadata !{i32 786433, null, metadata !"", null, i32 0, i64 832, i64 64, i32 0, i32 0, metadata !153, metadata !141, i32 0, i32 0} ; [ DW_TAG_array_type ]
!153 = metadata !{i32 786447, null, metadata !"", null, i32 0, i64 64, i64 64, i64 0, i32 0, metadata !154} ; [ DW_TAG_pointer_type ]
!154 = metadata !{i32 786470, null, metadata !"", null, i32 0, i64 0, i64 0, i64 0, i32 0, metadata !155} ; [ DW_TAG_const_type ]
!155 = metadata !{i32 786468, null, metadata !"char", null, i32 0, i64 8, i64 8, i64 0, i32 0, i32 6} ; [ DW_TAG_base_type ]
!156 = metadata !{i32 786478, i32 0, metadata !134, metadata !"__locale_struct", metadata !"__locale_struct", metadata !"", metadata !135, i32 41, metadata !157, i1 false, i1 false, i32 0, i32 0, null, i32 256, i1 false, null, null, i32 0, metadata !84, i32 41} ; [ DW_TAG_subprogram ]
!157 = metadata !{i32 786453, i32 0, metadata !"", i32 0, i32 0, i64 0, i64 0, i64 0, i32 0, null, metadata !158, i32 0, i32 0} ; [ DW_TAG_subroutine_type ]
!158 = metadata !{null, metadata !159}
!159 = metadata !{i32 786447, i32 0, metadata !"", i32 0, i32 0, i64 64, i64 64, i64 0, i32 64, metadata !134} ; [ DW_TAG_pointer_type ]
!160 = metadata !{i32 786478, i32 0, metadata !108, metadata !"_S_clone_c_locale", metadata !"_S_clone_c_locale", metadata !"_ZNSt6locale5facet17_S_clone_c_localeERP15__locale_struct", metadata !96, i32 382, metadata !161, i1 false, i1 false, i32 0, i32 0, null, i32 258, i1 false, null, null, i32 0, metadata !84, i32 382} ; [ DW_TAG_subprogram ]
!161 = metadata !{i32 786453, i32 0, metadata !"", i32 0, i32 0, i64 0, i64 0, i64 0, i32 0, null, metadata !162, i32 0, i32 0} ; [ DW_TAG_subroutine_type ]
!162 = metadata !{metadata !129, metadata !128}
!163 = metadata !{i32 786478, i32 0, metadata !108, metadata !"_S_destroy_c_locale", metadata !"_S_destroy_c_locale", metadata !"_ZNSt6locale5facet19_S_destroy_c_localeERP15__locale_struct", metadata !96, i32 385, metadata !164, i1 false, i1 false, i32 0, i32 0, null, i32 258, i1 false, null, null, i32 0, metadata !84, i32 385} ; [ DW_TAG_subprogram ]
!164 = metadata !{i32 786453, i32 0, metadata !"", i32 0, i32 0, i64 0, i64 0, i64 0, i32 0, null, metadata !165, i32 0, i32 0} ; [ DW_TAG_subroutine_type ]
!165 = metadata !{null, metadata !128}
!166 = metadata !{i32 786478, i32 0, metadata !108, metadata !"_S_lc_ctype_c_locale", metadata !"_S_lc_ctype_c_locale", metadata !"_ZNSt6locale5facet20_S_lc_ctype_c_localeEP15__locale_structPKc", metadata !96, i32 388, metadata !167, i1 false, i1 false, i32 0, i32 0, null, i32 258, i1 false, null, null, i32 0, metadata !84, i32 388} ; [ DW_TAG_subprogram ]
!167 = metadata !{i32 786453, i32 0, metadata !"", i32 0, i32 0, i64 0, i64 0, i64 0, i32 0, null, metadata !168, i32 0, i32 0} ; [ DW_TAG_subroutine_type ]
!168 = metadata !{metadata !129, metadata !129, metadata !153}
!169 = metadata !{i32 786478, i32 0, metadata !108, metadata !"_S_get_c_locale", metadata !"_S_get_c_locale", metadata !"_ZNSt6locale5facet15_S_get_c_localeEv", metadata !96, i32 393, metadata !170, i1 false, i1 false, i32 0, i32 0, null, i32 258, i1 false, null, null, i32 0, metadata !84, i32 393} ; [ DW_TAG_subprogram ]
!170 = metadata !{i32 786453, i32 0, metadata !"", i32 0, i32 0, i64 0, i64 0, i64 0, i32 0, null, metadata !171, i32 0, i32 0} ; [ DW_TAG_subroutine_type ]
!171 = metadata !{metadata !129}
!172 = metadata !{i32 786478, i32 0, metadata !108, metadata !"_S_get_c_name", metadata !"_S_get_c_name", metadata !"_ZNSt6locale5facet13_S_get_c_nameEv", metadata !96, i32 396, metadata !173, i1 false, i1 false, i32 0, i32 0, null, i32 258, i1 false, null, null, i32 0, metadata !84, i32 396} ; [ DW_TAG_subprogram ]
!173 = metadata !{i32 786453, i32 0, metadata !"", i32 0, i32 0, i64 0, i64 0, i64 0, i32 0, null, metadata !174, i32 0, i32 0} ; [ DW_TAG_subroutine_type ]
!174 = metadata !{metadata !153}
!175 = metadata !{i32 786478, i32 0, metadata !108, metadata !"_M_add_reference", metadata !"_M_add_reference", metadata !"_ZNKSt6locale5facet16_M_add_referenceEv", metadata !96, i32 400, metadata !176, i1 false, i1 false, i32 0, i32 0, null, i32 257, i1 false, null, null, i32 0, metadata !84, i32 400} ; [ DW_TAG_subprogram ]
!176 = metadata !{i32 786453, i32 0, metadata !"", i32 0, i32 0, i64 0, i64 0, i64 0, i32 0, null, metadata !177, i32 0, i32 0} ; [ DW_TAG_subroutine_type ]
!177 = metadata !{null, metadata !178}
!178 = metadata !{i32 786447, i32 0, metadata !"", i32 0, i32 0, i64 64, i64 64, i64 0, i32 64, metadata !107} ; [ DW_TAG_pointer_type ]
!179 = metadata !{i32 786478, i32 0, metadata !108, metadata !"_M_remove_reference", metadata !"_M_remove_reference", metadata !"_ZNKSt6locale5facet19_M_remove_referenceEv", metadata !96, i32 404, metadata !176, i1 false, i1 false, i32 0, i32 0, null, i32 257, i1 false, null, null, i32 0, metadata !84, i32 404} ; [ DW_TAG_subprogram ]
!180 = metadata !{i32 786478, i32 0, metadata !108, metadata !"facet", metadata !"facet", metadata !"", metadata !96, i32 418, metadata !181, i1 false, i1 false, i32 0, i32 0, null, i32 257, i1 false, null, null, i32 0, metadata !84, i32 418} ; [ DW_TAG_subprogram ]
!181 = metadata !{i32 786453, i32 0, metadata !"", i32 0, i32 0, i64 0, i64 0, i64 0, i32 0, null, metadata !182, i32 0, i32 0} ; [ DW_TAG_subroutine_type ]
!182 = metadata !{null, metadata !118, metadata !183}
!183 = metadata !{i32 786448, null, null, null, i32 0, i64 0, i64 0, i64 0, i32 0, metadata !107} ; [ DW_TAG_reference_type ]
!184 = metadata !{i32 786478, i32 0, metadata !108, metadata !"operator=", metadata !"operator=", metadata !"_ZNSt6locale5facetaSERKS0_", metadata !96, i32 421, metadata !185, i1 false, i1 false, i32 0, i32 0, null, i32 257, i1 false, null, null, i32 0, metadata !84, i32 421} ; [ DW_TAG_subprogram ]
!185 = metadata !{i32 786453, i32 0, metadata !"", i32 0, i32 0, i64 0, i64 0, i64 0, i32 0, null, metadata !186, i32 0, i32 0} ; [ DW_TAG_subroutine_type ]
!186 = metadata !{metadata !187, metadata !118, metadata !183}
!187 = metadata !{i32 786448, null, null, null, i32 0, i64 0, i64 0, i64 0, i32 0, metadata !108} ; [ DW_TAG_reference_type ]
!188 = metadata !{i32 786474, metadata !108, null, metadata !96, i32 0, i64 0, i64 0, i64 0, i32 0, metadata !100} ; [ DW_TAG_friend ]
!189 = metadata !{i32 786474, metadata !108, null, metadata !96, i32 0, i64 0, i64 0, i64 0, i32 0, metadata !94} ; [ DW_TAG_friend ]
!190 = metadata !{i32 786445, metadata !100, metadata !"_M_facets_size", metadata !96, i32 497, i64 64, i64 64, i64 128, i32 1, metadata !119} ; [ DW_TAG_member ]
!191 = metadata !{i32 786445, metadata !100, metadata !"_M_caches", metadata !96, i32 498, i64 64, i64 64, i64 192, i32 1, metadata !105} ; [ DW_TAG_member ]
!192 = metadata !{i32 786445, metadata !100, metadata !"_M_names", metadata !96, i32 499, i64 64, i64 64, i64 256, i32 1, metadata !193} ; [ DW_TAG_member ]
!193 = metadata !{i32 786447, null, metadata !"", null, i32 0, i64 64, i64 64, i64 0, i32 0, metadata !194} ; [ DW_TAG_pointer_type ]
!194 = metadata !{i32 786447, null, metadata !"", null, i32 0, i64 64, i64 64, i64 0, i32 0, metadata !155} ; [ DW_TAG_pointer_type ]
!195 = metadata !{i32 786478, i32 0, metadata !100, metadata !"_M_add_reference", metadata !"_M_add_reference", metadata !"_ZNSt6locale5_Impl16_M_add_referenceEv", metadata !96, i32 509, metadata !196, i1 false, i1 false, i32 0, i32 0, null, i32 257, i1 false, null, null, i32 0, metadata !84, i32 509} ; [ DW_TAG_subprogram ]
!196 = metadata !{i32 786453, i32 0, metadata !"", i32 0, i32 0, i64 0, i64 0, i64 0, i32 0, null, metadata !197, i32 0, i32 0} ; [ DW_TAG_subroutine_type ]
!197 = metadata !{null, metadata !198}
!198 = metadata !{i32 786447, i32 0, metadata !"", i32 0, i32 0, i64 64, i64 64, i64 0, i32 64, metadata !100} ; [ DW_TAG_pointer_type ]
!199 = metadata !{i32 786478, i32 0, metadata !100, metadata !"_M_remove_reference", metadata !"_M_remove_reference", metadata !"_ZNSt6locale5_Impl19_M_remove_referenceEv", metadata !96, i32 513, metadata !196, i1 false, i1 false, i32 0, i32 0, null, i32 257, i1 false, null, null, i32 0, metadata !84, i32 513} ; [ DW_TAG_subprogram ]
!200 = metadata !{i32 786478, i32 0, metadata !100, metadata !"_Impl", metadata !"_Impl", metadata !"", metadata !96, i32 527, metadata !201, i1 false, i1 false, i32 0, i32 0, null, i32 257, i1 false, null, null, i32 0, metadata !84, i32 527} ; [ DW_TAG_subprogram ]
!201 = metadata !{i32 786453, i32 0, metadata !"", i32 0, i32 0, i64 0, i64 0, i64 0, i32 0, null, metadata !202, i32 0, i32 0} ; [ DW_TAG_subroutine_type ]
!202 = metadata !{null, metadata !198, metadata !203, metadata !119}
!203 = metadata !{i32 786448, null, null, null, i32 0, i64 0, i64 0, i64 0, i32 0, metadata !204} ; [ DW_TAG_reference_type ]
!204 = metadata !{i32 786470, null, metadata !"", null, i32 0, i64 0, i64 0, i64 0, i32 0, metadata !100} ; [ DW_TAG_const_type ]
!205 = metadata !{i32 786478, i32 0, metadata !100, metadata !"_Impl", metadata !"_Impl", metadata !"", metadata !96, i32 528, metadata !206, i1 false, i1 false, i32 0, i32 0, null, i32 257, i1 false, null, null, i32 0, metadata !84, i32 528} ; [ DW_TAG_subprogram ]
!206 = metadata !{i32 786453, i32 0, metadata !"", i32 0, i32 0, i64 0, i64 0, i64 0, i32 0, null, metadata !207, i32 0, i32 0} ; [ DW_TAG_subroutine_type ]
!207 = metadata !{null, metadata !198, metadata !153, metadata !119}
!208 = metadata !{i32 786478, i32 0, metadata !100, metadata !"_Impl", metadata !"_Impl", metadata !"", metadata !96, i32 529, metadata !209, i1 false, i1 false, i32 0, i32 0, null, i32 257, i1 false, null, null, i32 0, metadata !84, i32 529} ; [ DW_TAG_subprogram ]
!209 = metadata !{i32 786453, i32 0, metadata !"", i32 0, i32 0, i64 0, i64 0, i64 0, i32 0, null, metadata !210, i32 0, i32 0} ; [ DW_TAG_subroutine_type ]
!210 = metadata !{null, metadata !198, metadata !119}
!211 = metadata !{i32 786478, i32 0, metadata !100, metadata !"~_Impl", metadata !"~_Impl", metadata !"", metadata !96, i32 531, metadata !196, i1 false, i1 false, i32 0, i32 0, null, i32 257, i1 false, null, null, i32 0, metadata !84, i32 531} ; [ DW_TAG_subprogram ]
!212 = metadata !{i32 786478, i32 0, metadata !100, metadata !"_Impl", metadata !"_Impl", metadata !"", metadata !96, i32 533, metadata !213, i1 false, i1 false, i32 0, i32 0, null, i32 257, i1 false, null, null, i32 0, metadata !84, i32 533} ; [ DW_TAG_subprogram ]
!213 = metadata !{i32 786453, i32 0, metadata !"", i32 0, i32 0, i64 0, i64 0, i64 0, i32 0, null, metadata !214, i32 0, i32 0} ; [ DW_TAG_subroutine_type ]
!214 = metadata !{null, metadata !198, metadata !203}
!215 = metadata !{i32 786478, i32 0, metadata !100, metadata !"operator=", metadata !"operator=", metadata !"_ZNSt6locale5_ImplaSERKS0_", metadata !96, i32 536, metadata !213, i1 false, i1 false, i32 0, i32 0, null, i32 257, i1 false, null, null, i32 0, metadata !84, i32 536} ; [ DW_TAG_subprogram ]
!216 = metadata !{i32 786478, i32 0, metadata !100, metadata !"_M_check_same_name", metadata !"_M_check_same_name", metadata !"_ZNSt6locale5_Impl18_M_check_same_nameEv", metadata !96, i32 539, metadata !217, i1 false, i1 false, i32 0, i32 0, null, i32 257, i1 false, null, null, i32 0, metadata !84, i32 539} ; [ DW_TAG_subprogram ]
!217 = metadata !{i32 786453, i32 0, metadata !"", i32 0, i32 0, i64 0, i64 0, i64 0, i32 0, null, metadata !218, i32 0, i32 0} ; [ DW_TAG_subroutine_type ]
!218 = metadata !{metadata !219, metadata !198}
!219 = metadata !{i32 786468, null, metadata !"bool", null, i32 0, i64 8, i64 8, i64 0, i32 0, i32 2} ; [ DW_TAG_base_type ]
!220 = metadata !{i32 786478, i32 0, metadata !100, metadata !"_M_replace_categories", metadata !"_M_replace_categories", metadata !"_ZNSt6locale5_Impl21_M_replace_categoriesEPKS0_i", metadata !96, i32 550, metadata !221, i1 false, i1 false, i32 0, i32 0, null, i32 257, i1 false, null, null, i32 0, metadata !84, i32 550} ; [ DW_TAG_subprogram ]
!221 = metadata !{i32 786453, i32 0, metadata !"", i32 0, i32 0, i64 0, i64 0, i64 0, i32 0, null, metadata !222, i32 0, i32 0} ; [ DW_TAG_subroutine_type ]
!222 = metadata !{null, metadata !198, metadata !223, metadata !224}
!223 = metadata !{i32 786447, null, metadata !"", null, i32 0, i64 64, i64 64, i64 0, i32 0, metadata !204} ; [ DW_TAG_pointer_type ]
!224 = metadata !{i32 786454, metadata !94, metadata !"category", metadata !96, i32 68, i64 0, i64 0, i64 0, i32 0, metadata !56} ; [ DW_TAG_typedef ]
!225 = metadata !{i32 786478, i32 0, metadata !100, metadata !"_M_replace_category", metadata !"_M_replace_category", metadata !"_ZNSt6locale5_Impl19_M_replace_categoryEPKS0_PKPKNS_2idE", metadata !96, i32 553, metadata !226, i1 false, i1 false, i32 0, i32 0, null, i32 257, i1 false, null, null, i32 0, metadata !84, i32 553} ; [ DW_TAG_subprogram ]
!226 = metadata !{i32 786453, i32 0, metadata !"", i32 0, i32 0, i64 0, i64 0, i64 0, i32 0, null, metadata !227, i32 0, i32 0} ; [ DW_TAG_subroutine_type ]
!227 = metadata !{null, metadata !198, metadata !223, metadata !228}
!228 = metadata !{i32 786447, null, metadata !"", null, i32 0, i64 64, i64 64, i64 0, i32 0, metadata !229} ; [ DW_TAG_pointer_type ]
!229 = metadata !{i32 786470, null, metadata !"", null, i32 0, i64 0, i64 0, i64 0, i32 0, metadata !230} ; [ DW_TAG_const_type ]
!230 = metadata !{i32 786447, null, metadata !"", null, i32 0, i64 64, i64 64, i64 0, i32 0, metadata !231} ; [ DW_TAG_pointer_type ]
!231 = metadata !{i32 786470, null, metadata !"", null, i32 0, i64 0, i64 0, i64 0, i32 0, metadata !232} ; [ DW_TAG_const_type ]
!232 = metadata !{i32 786434, metadata !94, metadata !"id", metadata !96, i32 436, i64 64, i64 64, i32 0, i32 0, null, metadata !233, i32 0, null, null} ; [ DW_TAG_class_type ]
!233 = metadata !{metadata !234, metadata !235, metadata !240, metadata !241, metadata !244, metadata !248, metadata !249}
!234 = metadata !{i32 786445, metadata !232, metadata !"_M_index", metadata !96, i32 453, i64 64, i64 64, i64 0, i32 1, metadata !119} ; [ DW_TAG_member ]
!235 = metadata !{i32 786478, i32 0, metadata !232, metadata !"operator=", metadata !"operator=", metadata !"_ZNSt6locale2idaSERKS0_", metadata !96, i32 459, metadata !236, i1 false, i1 false, i32 0, i32 0, null, i32 257, i1 false, null, null, i32 0, metadata !84, i32 459} ; [ DW_TAG_subprogram ]
!236 = metadata !{i32 786453, i32 0, metadata !"", i32 0, i32 0, i64 0, i64 0, i64 0, i32 0, null, metadata !237, i32 0, i32 0} ; [ DW_TAG_subroutine_type ]
!237 = metadata !{null, metadata !238, metadata !239}
!238 = metadata !{i32 786447, i32 0, metadata !"", i32 0, i32 0, i64 64, i64 64, i64 0, i32 64, metadata !232} ; [ DW_TAG_pointer_type ]
!239 = metadata !{i32 786448, null, null, null, i32 0, i64 0, i64 0, i64 0, i32 0, metadata !231} ; [ DW_TAG_reference_type ]
!240 = metadata !{i32 786478, i32 0, metadata !232, metadata !"id", metadata !"id", metadata !"", metadata !96, i32 461, metadata !236, i1 false, i1 false, i32 0, i32 0, null, i32 257, i1 false, null, null, i32 0, metadata !84, i32 461} ; [ DW_TAG_subprogram ]
!241 = metadata !{i32 786478, i32 0, metadata !232, metadata !"id", metadata !"id", metadata !"", metadata !96, i32 467, metadata !242, i1 false, i1 false, i32 0, i32 0, null, i32 256, i1 false, null, null, i32 0, metadata !84, i32 467} ; [ DW_TAG_subprogram ]
!242 = metadata !{i32 786453, i32 0, metadata !"", i32 0, i32 0, i64 0, i64 0, i64 0, i32 0, null, metadata !243, i32 0, i32 0} ; [ DW_TAG_subroutine_type ]
!243 = metadata !{null, metadata !238}
!244 = metadata !{i32 786478, i32 0, metadata !232, metadata !"_M_id", metadata !"_M_id", metadata !"_ZNKSt6locale2id5_M_idEv", metadata !96, i32 470, metadata !245, i1 false, i1 false, i32 0, i32 0, null, i32 256, i1 false, null, null, i32 0, metadata !84, i32 470} ; [ DW_TAG_subprogram ]
!245 = metadata !{i32 786453, i32 0, metadata !"", i32 0, i32 0, i64 0, i64 0, i64 0, i32 0, null, metadata !246, i32 0, i32 0} ; [ DW_TAG_subroutine_type ]
!246 = metadata !{metadata !119, metadata !247}
!247 = metadata !{i32 786447, i32 0, metadata !"", i32 0, i32 0, i64 64, i64 64, i64 0, i32 64, metadata !231} ; [ DW_TAG_pointer_type ]
!248 = metadata !{i32 786474, metadata !232, null, metadata !96, i32 0, i64 0, i64 0, i64 0, i32 0, metadata !100} ; [ DW_TAG_friend ]
!249 = metadata !{i32 786474, metadata !232, null, metadata !96, i32 0, i64 0, i64 0, i64 0, i32 0, metadata !94} ; [ DW_TAG_friend ]
!250 = metadata !{i32 786478, i32 0, metadata !100, metadata !"_M_replace_facet", metadata !"_M_replace_facet", metadata !"_ZNSt6locale5_Impl16_M_replace_facetEPKS0_PKNS_2idE", metadata !96, i32 556, metadata !251, i1 false, i1 false, i32 0, i32 0, null, i32 257, i1 false, null, null, i32 0, metadata !84, i32 556} ; [ DW_TAG_subprogram ]
!251 = metadata !{i32 786453, i32 0, metadata !"", i32 0, i32 0, i64 0, i64 0, i64 0, i32 0, null, metadata !252, i32 0, i32 0} ; [ DW_TAG_subroutine_type ]
!252 = metadata !{null, metadata !198, metadata !223, metadata !230}
!253 = metadata !{i32 786478, i32 0, metadata !100, metadata !"_M_install_facet", metadata !"_M_install_facet", metadata !"_ZNSt6locale5_Impl16_M_install_facetEPKNS_2idEPKNS_5facetE", metadata !96, i32 559, metadata !254, i1 false, i1 false, i32 0, i32 0, null, i32 257, i1 false, null, null, i32 0, metadata !84, i32 559} ; [ DW_TAG_subprogram ]
!254 = metadata !{i32 786453, i32 0, metadata !"", i32 0, i32 0, i64 0, i64 0, i64 0, i32 0, null, metadata !255, i32 0, i32 0} ; [ DW_TAG_subroutine_type ]
!255 = metadata !{null, metadata !198, metadata !230, metadata !106}
!256 = metadata !{i32 786478, i32 0, metadata !100, metadata !"_M_install_cache", metadata !"_M_install_cache", metadata !"_ZNSt6locale5_Impl16_M_install_cacheEPKNS_5facetEm", metadata !96, i32 567, metadata !257, i1 false, i1 false, i32 0, i32 0, null, i32 257, i1 false, null, null, i32 0, metadata !84, i32 567} ; [ DW_TAG_subprogram ]
!257 = metadata !{i32 786453, i32 0, metadata !"", i32 0, i32 0, i64 0, i64 0, i64 0, i32 0, null, metadata !258, i32 0, i32 0} ; [ DW_TAG_subroutine_type ]
!258 = metadata !{null, metadata !198, metadata !106, metadata !119}
!259 = metadata !{i32 786474, metadata !100, null, metadata !96, i32 0, i64 0, i64 0, i64 0, i32 0, metadata !108} ; [ DW_TAG_friend ]
!260 = metadata !{i32 786474, metadata !100, null, metadata !96, i32 0, i64 0, i64 0, i64 0, i32 0, metadata !94} ; [ DW_TAG_friend ]
!261 = metadata !{i32 786478, i32 0, metadata !94, metadata !"locale", metadata !"locale", metadata !"", metadata !96, i32 118, metadata !262, i1 false, i1 false, i32 0, i32 0, null, i32 256, i1 false, null, null, i32 0, metadata !84, i32 118} ; [ DW_TAG_subprogram ]
!262 = metadata !{i32 786453, i32 0, metadata !"", i32 0, i32 0, i64 0, i64 0, i64 0, i32 0, null, metadata !263, i32 0, i32 0} ; [ DW_TAG_subroutine_type ]
!263 = metadata !{null, metadata !264}
!264 = metadata !{i32 786447, i32 0, metadata !"", i32 0, i32 0, i64 64, i64 64, i64 0, i32 64, metadata !94} ; [ DW_TAG_pointer_type ]
!265 = metadata !{i32 786478, i32 0, metadata !94, metadata !"locale", metadata !"locale", metadata !"", metadata !96, i32 127, metadata !266, i1 false, i1 false, i32 0, i32 0, null, i32 256, i1 false, null, null, i32 0, metadata !84, i32 127} ; [ DW_TAG_subprogram ]
!266 = metadata !{i32 786453, i32 0, metadata !"", i32 0, i32 0, i64 0, i64 0, i64 0, i32 0, null, metadata !267, i32 0, i32 0} ; [ DW_TAG_subroutine_type ]
!267 = metadata !{null, metadata !264, metadata !268}
!268 = metadata !{i32 786448, null, null, null, i32 0, i64 0, i64 0, i64 0, i32 0, metadata !269} ; [ DW_TAG_reference_type ]
!269 = metadata !{i32 786470, null, metadata !"", null, i32 0, i64 0, i64 0, i64 0, i32 0, metadata !94} ; [ DW_TAG_const_type ]
!270 = metadata !{i32 786478, i32 0, metadata !94, metadata !"locale", metadata !"locale", metadata !"", metadata !96, i32 138, metadata !271, i1 false, i1 false, i32 0, i32 0, null, i32 384, i1 false, null, null, i32 0, metadata !84, i32 138} ; [ DW_TAG_subprogram ]
!271 = metadata !{i32 786453, i32 0, metadata !"", i32 0, i32 0, i64 0, i64 0, i64 0, i32 0, null, metadata !272, i32 0, i32 0} ; [ DW_TAG_subroutine_type ]
!272 = metadata !{null, metadata !264, metadata !153}
!273 = metadata !{i32 786478, i32 0, metadata !94, metadata !"locale", metadata !"locale", metadata !"", metadata !96, i32 152, metadata !274, i1 false, i1 false, i32 0, i32 0, null, i32 256, i1 false, null, null, i32 0, metadata !84, i32 152} ; [ DW_TAG_subprogram ]
!274 = metadata !{i32 786453, i32 0, metadata !"", i32 0, i32 0, i64 0, i64 0, i64 0, i32 0, null, metadata !275, i32 0, i32 0} ; [ DW_TAG_subroutine_type ]
!275 = metadata !{null, metadata !264, metadata !268, metadata !153, metadata !224}
!276 = metadata !{i32 786478, i32 0, metadata !94, metadata !"locale", metadata !"locale", metadata !"", metadata !96, i32 165, metadata !277, i1 false, i1 false, i32 0, i32 0, null, i32 256, i1 false, null, null, i32 0, metadata !84, i32 165} ; [ DW_TAG_subprogram ]
!277 = metadata !{i32 786453, i32 0, metadata !"", i32 0, i32 0, i64 0, i64 0, i64 0, i32 0, null, metadata !278, i32 0, i32 0} ; [ DW_TAG_subroutine_type ]
!278 = metadata !{null, metadata !264, metadata !268, metadata !268, metadata !224}
!279 = metadata !{i32 786478, i32 0, metadata !94, metadata !"~locale", metadata !"~locale", metadata !"", metadata !96, i32 181, metadata !262, i1 false, i1 false, i32 0, i32 0, null, i32 256, i1 false, null, null, i32 0, metadata !84, i32 181} ; [ DW_TAG_subprogram ]
!280 = metadata !{i32 786478, i32 0, metadata !94, metadata !"operator=", metadata !"operator=", metadata !"_ZNSt6localeaSERKS_", metadata !96, i32 192, metadata !281, i1 false, i1 false, i32 0, i32 0, null, i32 256, i1 false, null, null, i32 0, metadata !84, i32 192} ; [ DW_TAG_subprogram ]
!281 = metadata !{i32 786453, i32 0, metadata !"", i32 0, i32 0, i64 0, i64 0, i64 0, i32 0, null, metadata !282, i32 0, i32 0} ; [ DW_TAG_subroutine_type ]
!282 = metadata !{metadata !268, metadata !264, metadata !268}
!283 = metadata !{i32 786478, i32 0, metadata !94, metadata !"name", metadata !"name", metadata !"_ZNKSt6locale4nameEv", metadata !96, i32 216, metadata !284, i1 false, i1 false, i32 0, i32 0, null, i32 256, i1 false, null, null, i32 0, metadata !84, i32 216} ; [ DW_TAG_subprogram ]
!284 = metadata !{i32 786453, i32 0, metadata !"", i32 0, i32 0, i64 0, i64 0, i64 0, i32 0, null, metadata !285, i32 0, i32 0} ; [ DW_TAG_subroutine_type ]
!285 = metadata !{metadata !286, metadata !729}
!286 = metadata !{i32 786454, metadata !287, metadata !"string", metadata !96, i32 64, i64 0, i64 0, i64 0, i32 0, metadata !289} ; [ DW_TAG_typedef ]
!287 = metadata !{i32 786489, null, metadata !"std", metadata !288, i32 42} ; [ DW_TAG_namespace ]
!288 = metadata !{i32 786473, metadata !"/Xilinx/Vivado_HLS/2014.1/lnx64/tools/gcc/lib/gcc/x86_64-unknown-linux-gnu/4.6.3/../../../../include/c++/4.6.3/bits/stringfwd.h", metadata !"/D/xilinx_workspace", null} ; [ DW_TAG_file_type ]
!289 = metadata !{i32 786434, metadata !287, metadata !"basic_string<char>", metadata !290, i32 1133, i64 64, i64 64, i32 0, i32 0, null, metadata !291, i32 0, null, metadata !673} ; [ DW_TAG_class_type ]
!290 = metadata !{i32 786473, metadata !"/Xilinx/Vivado_HLS/2014.1/lnx64/tools/gcc/lib/gcc/x86_64-unknown-linux-gnu/4.6.3/../../../../include/c++/4.6.3/bits/basic_string.tcc", metadata !"/D/xilinx_workspace", null} ; [ DW_TAG_file_type ]
!291 = metadata !{metadata !292, metadata !364, metadata !369, metadata !373, metadata !378, metadata !384, metadata !385, metadata !388, metadata !393, metadata !396, metadata !399, metadata !402, metadata !405, metadata !406, metadata !409, metadata !412, metadata !417, metadata !420, metadata !421, metadata !424, metadata !427, metadata !428, metadata !432, metadata !433, metadata !436, metadata !440, metadata !443, metadata !446, metadata !449, metadata !452, metadata !455, metadata !456, metadata !460, metadata !463, metadata !466, metadata !469, metadata !472, metadata !473, metadata !474, metadata !479, metadata !484, metadata !485, metadata !486, metadata !489, metadata !490, metadata !491, metadata !494, metadata !497, metadata !498, metadata !499, metadata !500, metadata !503, metadata !508, metadata !513, metadata !514, metadata !515, metadata !516, metadata !517, metadata !518, metadata !519, metadata !522, metadata !525, metadata !526, metadata !529, metadata !532, metadata !533, metadata !534, metadata !535, metadata !536, metadata !537, metadata !540, metadata !543, metadata !546, metadata !549, metadata !552, metadata !555, metadata !558, metadata !561, metadata !564, metadata !567, metadata !570, metadata !573, metadata !576, metadata !579, metadata !582, metadata !585, metadata !588, metadata !591, metadata !594, metadata !597, metadata !598, metadata !601, metadata !604, metadata !605, metadata !606, metadata !609, metadata !610, metadata !613, metadata !616, metadata !617, metadata !618, metadata !622, metadata !623, metadata !626, metadata !629, metadata !632, metadata !633, metadata !634, metadata !635, metadata !636, metadata !637, metadata !638, metadata !639, metadata !640, metadata !641, metadata !642, metadata !643, metadata !644, metadata !645, metadata !646, metadata !647, metadata !648, metadata !649, metadata !650, metadata !651, metadata !652, metadata !655, metadata !658, metadata !661, metadata !664, metadata !667, metadata !670}
!292 = metadata !{i32 786445, metadata !289, metadata !"_M_dataplus", metadata !120, i32 283, i64 64, i64 64, i64 0, i32 1, metadata !293} ; [ DW_TAG_member ]
!293 = metadata !{i32 786434, metadata !289, metadata !"_Alloc_hider", metadata !120, i32 266, i64 64, i64 64, i32 0, i32 0, null, metadata !294, i32 0, null, null} ; [ DW_TAG_class_type ]
!294 = metadata !{metadata !295, metadata !358, metadata !359}
!295 = metadata !{i32 786460, metadata !293, null, metadata !120, i32 0, i64 0, i64 0, i64 0, i32 0, metadata !296} ; [ DW_TAG_inheritance ]
!296 = metadata !{i32 786434, metadata !287, metadata !"allocator<char>", metadata !297, i32 143, i64 8, i64 8, i32 0, i32 0, null, metadata !298, i32 0, null, metadata !356} ; [ DW_TAG_class_type ]
!297 = metadata !{i32 786473, metadata !"/Xilinx/Vivado_HLS/2014.1/lnx64/tools/gcc/lib/gcc/x86_64-unknown-linux-gnu/4.6.3/../../../../include/c++/4.6.3/bits/allocator.h", metadata !"/D/xilinx_workspace", null} ; [ DW_TAG_file_type ]
!298 = metadata !{metadata !299, metadata !346, metadata !350, metadata !355}
!299 = metadata !{i32 786460, metadata !296, null, metadata !297, i32 0, i64 0, i64 0, i64 0, i32 0, metadata !300} ; [ DW_TAG_inheritance ]
!300 = metadata !{i32 786434, metadata !301, metadata !"new_allocator<char>", metadata !302, i32 54, i64 8, i64 8, i32 0, i32 0, null, metadata !303, i32 0, null, metadata !344} ; [ DW_TAG_class_type ]
!301 = metadata !{i32 786489, null, metadata !"__gnu_cxx", metadata !302, i32 38} ; [ DW_TAG_namespace ]
!302 = metadata !{i32 786473, metadata !"/Xilinx/Vivado_HLS/2014.1/lnx64/tools/gcc/lib/gcc/x86_64-unknown-linux-gnu/4.6.3/../../../../include/c++/4.6.3/ext/new_allocator.h", metadata !"/D/xilinx_workspace", null} ; [ DW_TAG_file_type ]
!303 = metadata !{metadata !304, metadata !308, metadata !313, metadata !314, metadata !321, metadata !326, metadata !332, metadata !335, metadata !338, metadata !341}
!304 = metadata !{i32 786478, i32 0, metadata !300, metadata !"new_allocator", metadata !"new_allocator", metadata !"", metadata !302, i32 69, metadata !305, i1 false, i1 false, i32 0, i32 0, null, i32 256, i1 false, null, null, i32 0, metadata !84, i32 69} ; [ DW_TAG_subprogram ]
!305 = metadata !{i32 786453, i32 0, metadata !"", i32 0, i32 0, i64 0, i64 0, i64 0, i32 0, null, metadata !306, i32 0, i32 0} ; [ DW_TAG_subroutine_type ]
!306 = metadata !{null, metadata !307}
!307 = metadata !{i32 786447, i32 0, metadata !"", i32 0, i32 0, i64 64, i64 64, i64 0, i32 64, metadata !300} ; [ DW_TAG_pointer_type ]
!308 = metadata !{i32 786478, i32 0, metadata !300, metadata !"new_allocator", metadata !"new_allocator", metadata !"", metadata !302, i32 71, metadata !309, i1 false, i1 false, i32 0, i32 0, null, i32 256, i1 false, null, null, i32 0, metadata !84, i32 71} ; [ DW_TAG_subprogram ]
!309 = metadata !{i32 786453, i32 0, metadata !"", i32 0, i32 0, i64 0, i64 0, i64 0, i32 0, null, metadata !310, i32 0, i32 0} ; [ DW_TAG_subroutine_type ]
!310 = metadata !{null, metadata !307, metadata !311}
!311 = metadata !{i32 786448, null, null, null, i32 0, i64 0, i64 0, i64 0, i32 0, metadata !312} ; [ DW_TAG_reference_type ]
!312 = metadata !{i32 786470, null, metadata !"", null, i32 0, i64 0, i64 0, i64 0, i32 0, metadata !300} ; [ DW_TAG_const_type ]
!313 = metadata !{i32 786478, i32 0, metadata !300, metadata !"~new_allocator", metadata !"~new_allocator", metadata !"", metadata !302, i32 76, metadata !305, i1 false, i1 false, i32 0, i32 0, null, i32 256, i1 false, null, null, i32 0, metadata !84, i32 76} ; [ DW_TAG_subprogram ]
!314 = metadata !{i32 786478, i32 0, metadata !300, metadata !"address", metadata !"address", metadata !"_ZNK9__gnu_cxx13new_allocatorIcE7addressERc", metadata !302, i32 79, metadata !315, i1 false, i1 false, i32 0, i32 0, null, i32 256, i1 false, null, null, i32 0, metadata !84, i32 79} ; [ DW_TAG_subprogram ]
!315 = metadata !{i32 786453, i32 0, metadata !"", i32 0, i32 0, i64 0, i64 0, i64 0, i32 0, null, metadata !316, i32 0, i32 0} ; [ DW_TAG_subroutine_type ]
!316 = metadata !{metadata !317, metadata !318, metadata !319}
!317 = metadata !{i32 786454, metadata !300, metadata !"pointer", metadata !302, i32 59, i64 0, i64 0, i64 0, i32 0, metadata !194} ; [ DW_TAG_typedef ]
!318 = metadata !{i32 786447, i32 0, metadata !"", i32 0, i32 0, i64 64, i64 64, i64 0, i32 64, metadata !312} ; [ DW_TAG_pointer_type ]
!319 = metadata !{i32 786454, metadata !300, metadata !"reference", metadata !302, i32 61, i64 0, i64 0, i64 0, i32 0, metadata !320} ; [ DW_TAG_typedef ]
!320 = metadata !{i32 786448, null, null, null, i32 0, i64 0, i64 0, i64 0, i32 0, metadata !155} ; [ DW_TAG_reference_type ]
!321 = metadata !{i32 786478, i32 0, metadata !300, metadata !"address", metadata !"address", metadata !"_ZNK9__gnu_cxx13new_allocatorIcE7addressERKc", metadata !302, i32 82, metadata !322, i1 false, i1 false, i32 0, i32 0, null, i32 256, i1 false, null, null, i32 0, metadata !84, i32 82} ; [ DW_TAG_subprogram ]
!322 = metadata !{i32 786453, i32 0, metadata !"", i32 0, i32 0, i64 0, i64 0, i64 0, i32 0, null, metadata !323, i32 0, i32 0} ; [ DW_TAG_subroutine_type ]
!323 = metadata !{metadata !324, metadata !318, metadata !325}
!324 = metadata !{i32 786454, metadata !300, metadata !"const_pointer", metadata !302, i32 60, i64 0, i64 0, i64 0, i32 0, metadata !194} ; [ DW_TAG_typedef ]
!325 = metadata !{i32 786454, metadata !300, metadata !"const_reference", metadata !302, i32 62, i64 0, i64 0, i64 0, i32 0, metadata !320} ; [ DW_TAG_typedef ]
!326 = metadata !{i32 786478, i32 0, metadata !300, metadata !"allocate", metadata !"allocate", metadata !"_ZN9__gnu_cxx13new_allocatorIcE8allocateEmPKv", metadata !302, i32 87, metadata !327, i1 false, i1 false, i32 0, i32 0, null, i32 256, i1 false, null, null, i32 0, metadata !84, i32 87} ; [ DW_TAG_subprogram ]
!327 = metadata !{i32 786453, i32 0, metadata !"", i32 0, i32 0, i64 0, i64 0, i64 0, i32 0, null, metadata !328, i32 0, i32 0} ; [ DW_TAG_subroutine_type ]
!328 = metadata !{metadata !317, metadata !307, metadata !329, metadata !330}
!329 = metadata !{i32 786454, null, metadata !"size_type", metadata !302, i32 57, i64 0, i64 0, i64 0, i32 0, metadata !119} ; [ DW_TAG_typedef ]
!330 = metadata !{i32 786447, null, metadata !"", null, i32 0, i64 64, i64 64, i64 0, i32 0, metadata !331} ; [ DW_TAG_pointer_type ]
!331 = metadata !{i32 786470, null, metadata !"", null, i32 0, i64 0, i64 0, i64 0, i32 0, null} ; [ DW_TAG_const_type ]
!332 = metadata !{i32 786478, i32 0, metadata !300, metadata !"deallocate", metadata !"deallocate", metadata !"_ZN9__gnu_cxx13new_allocatorIcE10deallocateEPcm", metadata !302, i32 97, metadata !333, i1 false, i1 false, i32 0, i32 0, null, i32 256, i1 false, null, null, i32 0, metadata !84, i32 97} ; [ DW_TAG_subprogram ]
!333 = metadata !{i32 786453, i32 0, metadata !"", i32 0, i32 0, i64 0, i64 0, i64 0, i32 0, null, metadata !334, i32 0, i32 0} ; [ DW_TAG_subroutine_type ]
!334 = metadata !{null, metadata !307, metadata !317, metadata !329}
!335 = metadata !{i32 786478, i32 0, metadata !300, metadata !"max_size", metadata !"max_size", metadata !"_ZNK9__gnu_cxx13new_allocatorIcE8max_sizeEv", metadata !302, i32 101, metadata !336, i1 false, i1 false, i32 0, i32 0, null, i32 256, i1 false, null, null, i32 0, metadata !84, i32 101} ; [ DW_TAG_subprogram ]
!336 = metadata !{i32 786453, i32 0, metadata !"", i32 0, i32 0, i64 0, i64 0, i64 0, i32 0, null, metadata !337, i32 0, i32 0} ; [ DW_TAG_subroutine_type ]
!337 = metadata !{metadata !329, metadata !318}
!338 = metadata !{i32 786478, i32 0, metadata !300, metadata !"construct", metadata !"construct", metadata !"_ZN9__gnu_cxx13new_allocatorIcE9constructEPcRKc", metadata !302, i32 107, metadata !339, i1 false, i1 false, i32 0, i32 0, null, i32 256, i1 false, null, null, i32 0, metadata !84, i32 107} ; [ DW_TAG_subprogram ]
!339 = metadata !{i32 786453, i32 0, metadata !"", i32 0, i32 0, i64 0, i64 0, i64 0, i32 0, null, metadata !340, i32 0, i32 0} ; [ DW_TAG_subroutine_type ]
!340 = metadata !{null, metadata !307, metadata !317, metadata !320}
!341 = metadata !{i32 786478, i32 0, metadata !300, metadata !"destroy", metadata !"destroy", metadata !"_ZN9__gnu_cxx13new_allocatorIcE7destroyEPc", metadata !302, i32 118, metadata !342, i1 false, i1 false, i32 0, i32 0, null, i32 256, i1 false, null, null, i32 0, metadata !84, i32 118} ; [ DW_TAG_subprogram ]
!342 = metadata !{i32 786453, i32 0, metadata !"", i32 0, i32 0, i64 0, i64 0, i64 0, i32 0, null, metadata !343, i32 0, i32 0} ; [ DW_TAG_subroutine_type ]
!343 = metadata !{null, metadata !307, metadata !317}
!344 = metadata !{metadata !345}
!345 = metadata !{i32 786479, null, metadata !"_Tp", metadata !155, null, i32 0, i32 0} ; [ DW_TAG_template_type_parameter ]
!346 = metadata !{i32 786478, i32 0, metadata !296, metadata !"allocator", metadata !"allocator", metadata !"", metadata !297, i32 107, metadata !347, i1 false, i1 false, i32 0, i32 0, null, i32 256, i1 false, null, null, i32 0, metadata !84, i32 107} ; [ DW_TAG_subprogram ]
!347 = metadata !{i32 786453, i32 0, metadata !"", i32 0, i32 0, i64 0, i64 0, i64 0, i32 0, null, metadata !348, i32 0, i32 0} ; [ DW_TAG_subroutine_type ]
!348 = metadata !{null, metadata !349}
!349 = metadata !{i32 786447, i32 0, metadata !"", i32 0, i32 0, i64 64, i64 64, i64 0, i32 64, metadata !296} ; [ DW_TAG_pointer_type ]
!350 = metadata !{i32 786478, i32 0, metadata !296, metadata !"allocator", metadata !"allocator", metadata !"", metadata !297, i32 109, metadata !351, i1 false, i1 false, i32 0, i32 0, null, i32 256, i1 false, null, null, i32 0, metadata !84, i32 109} ; [ DW_TAG_subprogram ]
!351 = metadata !{i32 786453, i32 0, metadata !"", i32 0, i32 0, i64 0, i64 0, i64 0, i32 0, null, metadata !352, i32 0, i32 0} ; [ DW_TAG_subroutine_type ]
!352 = metadata !{null, metadata !349, metadata !353}
!353 = metadata !{i32 786448, null, null, null, i32 0, i64 0, i64 0, i64 0, i32 0, metadata !354} ; [ DW_TAG_reference_type ]
!354 = metadata !{i32 786470, null, metadata !"", null, i32 0, i64 0, i64 0, i64 0, i32 0, metadata !296} ; [ DW_TAG_const_type ]
!355 = metadata !{i32 786478, i32 0, metadata !296, metadata !"~allocator", metadata !"~allocator", metadata !"", metadata !297, i32 115, metadata !347, i1 false, i1 false, i32 0, i32 0, null, i32 256, i1 false, null, null, i32 0, metadata !84, i32 115} ; [ DW_TAG_subprogram ]
!356 = metadata !{metadata !357}
!357 = metadata !{i32 786479, null, metadata !"_Alloc", metadata !155, null, i32 0, i32 0} ; [ DW_TAG_template_type_parameter ]
!358 = metadata !{i32 786445, metadata !293, metadata !"_M_p", metadata !120, i32 271, i64 64, i64 64, i64 0, i32 0, metadata !194} ; [ DW_TAG_member ]
!359 = metadata !{i32 786478, i32 0, metadata !293, metadata !"_Alloc_hider", metadata !"_Alloc_hider", metadata !"", metadata !120, i32 268, metadata !360, i1 false, i1 false, i32 0, i32 0, null, i32 256, i1 false, null, null, i32 0, metadata !84, i32 268} ; [ DW_TAG_subprogram ]
!360 = metadata !{i32 786453, i32 0, metadata !"", i32 0, i32 0, i64 0, i64 0, i64 0, i32 0, null, metadata !361, i32 0, i32 0} ; [ DW_TAG_subroutine_type ]
!361 = metadata !{null, metadata !362, metadata !194, metadata !363}
!362 = metadata !{i32 786447, i32 0, metadata !"", i32 0, i32 0, i64 64, i64 64, i64 0, i32 64, metadata !293} ; [ DW_TAG_pointer_type ]
!363 = metadata !{i32 786448, null, null, null, i32 0, i64 0, i64 0, i64 0, i32 0, metadata !296} ; [ DW_TAG_reference_type ]
!364 = metadata !{i32 786478, i32 0, metadata !289, metadata !"_M_data", metadata !"_M_data", metadata !"_ZNKSs7_M_dataEv", metadata !120, i32 286, metadata !365, i1 false, i1 false, i32 0, i32 0, null, i32 257, i1 false, null, null, i32 0, metadata !84, i32 286} ; [ DW_TAG_subprogram ]
!365 = metadata !{i32 786453, i32 0, metadata !"", i32 0, i32 0, i64 0, i64 0, i64 0, i32 0, null, metadata !366, i32 0, i32 0} ; [ DW_TAG_subroutine_type ]
!366 = metadata !{metadata !194, metadata !367}
!367 = metadata !{i32 786447, i32 0, metadata !"", i32 0, i32 0, i64 64, i64 64, i64 0, i32 64, metadata !368} ; [ DW_TAG_pointer_type ]
!368 = metadata !{i32 786470, null, metadata !"", null, i32 0, i64 0, i64 0, i64 0, i32 0, metadata !289} ; [ DW_TAG_const_type ]
!369 = metadata !{i32 786478, i32 0, metadata !289, metadata !"_M_data", metadata !"_M_data", metadata !"_ZNSs7_M_dataEPc", metadata !120, i32 290, metadata !370, i1 false, i1 false, i32 0, i32 0, null, i32 257, i1 false, null, null, i32 0, metadata !84, i32 290} ; [ DW_TAG_subprogram ]
!370 = metadata !{i32 786453, i32 0, metadata !"", i32 0, i32 0, i64 0, i64 0, i64 0, i32 0, null, metadata !371, i32 0, i32 0} ; [ DW_TAG_subroutine_type ]
!371 = metadata !{metadata !194, metadata !372, metadata !194}
!372 = metadata !{i32 786447, i32 0, metadata !"", i32 0, i32 0, i64 64, i64 64, i64 0, i32 64, metadata !289} ; [ DW_TAG_pointer_type ]
!373 = metadata !{i32 786478, i32 0, metadata !289, metadata !"_M_rep", metadata !"_M_rep", metadata !"_ZNKSs6_M_repEv", metadata !120, i32 294, metadata !374, i1 false, i1 false, i32 0, i32 0, null, i32 257, i1 false, null, null, i32 0, metadata !84, i32 294} ; [ DW_TAG_subprogram ]
!374 = metadata !{i32 786453, i32 0, metadata !"", i32 0, i32 0, i64 0, i64 0, i64 0, i32 0, null, metadata !375, i32 0, i32 0} ; [ DW_TAG_subroutine_type ]
!375 = metadata !{metadata !376, metadata !367}
!376 = metadata !{i32 786447, null, metadata !"", null, i32 0, i64 64, i64 64, i64 0, i32 0, metadata !377} ; [ DW_TAG_pointer_type ]
!377 = metadata !{i32 786434, null, metadata !"_Rep", metadata !120, i32 149, i32 0, i32 0, i32 0, i32 4, null, null, i32 0} ; [ DW_TAG_class_type ]
!378 = metadata !{i32 786478, i32 0, metadata !289, metadata !"_M_ibegin", metadata !"_M_ibegin", metadata !"_ZNKSs9_M_ibeginEv", metadata !120, i32 300, metadata !379, i1 false, i1 false, i32 0, i32 0, null, i32 257, i1 false, null, null, i32 0, metadata !84, i32 300} ; [ DW_TAG_subprogram ]
!379 = metadata !{i32 786453, i32 0, metadata !"", i32 0, i32 0, i64 0, i64 0, i64 0, i32 0, null, metadata !380, i32 0, i32 0} ; [ DW_TAG_subroutine_type ]
!380 = metadata !{metadata !381, metadata !367}
!381 = metadata !{i32 786454, metadata !289, metadata !"iterator", metadata !290, i32 121, i64 0, i64 0, i64 0, i32 0, metadata !382} ; [ DW_TAG_typedef ]
!382 = metadata !{i32 786434, null, metadata !"__normal_iterator<char *, std::basic_string<char> >", metadata !383, i32 702, i32 0, i32 0, i32 0, i32 4, null, null, i32 0} ; [ DW_TAG_class_type ]
!383 = metadata !{i32 786473, metadata !"/Xilinx/Vivado_HLS/2014.1/lnx64/tools/gcc/lib/gcc/x86_64-unknown-linux-gnu/4.6.3/../../../../include/c++/4.6.3/bits/stl_iterator.h", metadata !"/D/xilinx_workspace", null} ; [ DW_TAG_file_type ]
!384 = metadata !{i32 786478, i32 0, metadata !289, metadata !"_M_iend", metadata !"_M_iend", metadata !"_ZNKSs7_M_iendEv", metadata !120, i32 304, metadata !379, i1 false, i1 false, i32 0, i32 0, null, i32 257, i1 false, null, null, i32 0, metadata !84, i32 304} ; [ DW_TAG_subprogram ]
!385 = metadata !{i32 786478, i32 0, metadata !289, metadata !"_M_leak", metadata !"_M_leak", metadata !"_ZNSs7_M_leakEv", metadata !120, i32 308, metadata !386, i1 false, i1 false, i32 0, i32 0, null, i32 257, i1 false, null, null, i32 0, metadata !84, i32 308} ; [ DW_TAG_subprogram ]
!386 = metadata !{i32 786453, i32 0, metadata !"", i32 0, i32 0, i64 0, i64 0, i64 0, i32 0, null, metadata !387, i32 0, i32 0} ; [ DW_TAG_subroutine_type ]
!387 = metadata !{null, metadata !372}
!388 = metadata !{i32 786478, i32 0, metadata !289, metadata !"_M_check", metadata !"_M_check", metadata !"_ZNKSs8_M_checkEmPKc", metadata !120, i32 315, metadata !389, i1 false, i1 false, i32 0, i32 0, null, i32 257, i1 false, null, null, i32 0, metadata !84, i32 315} ; [ DW_TAG_subprogram ]
!389 = metadata !{i32 786453, i32 0, metadata !"", i32 0, i32 0, i64 0, i64 0, i64 0, i32 0, null, metadata !390, i32 0, i32 0} ; [ DW_TAG_subroutine_type ]
!390 = metadata !{metadata !391, metadata !367, metadata !391, metadata !153}
!391 = metadata !{i32 786454, metadata !289, metadata !"size_type", metadata !120, i32 115, i64 0, i64 0, i64 0, i32 0, metadata !392} ; [ DW_TAG_typedef ]
!392 = metadata !{i32 786454, metadata !296, metadata !"size_type", metadata !120, i32 95, i64 0, i64 0, i64 0, i32 0, metadata !119} ; [ DW_TAG_typedef ]
!393 = metadata !{i32 786478, i32 0, metadata !289, metadata !"_M_check_length", metadata !"_M_check_length", metadata !"_ZNKSs15_M_check_lengthEmmPKc", metadata !120, i32 323, metadata !394, i1 false, i1 false, i32 0, i32 0, null, i32 257, i1 false, null, null, i32 0, metadata !84, i32 323} ; [ DW_TAG_subprogram ]
!394 = metadata !{i32 786453, i32 0, metadata !"", i32 0, i32 0, i64 0, i64 0, i64 0, i32 0, null, metadata !395, i32 0, i32 0} ; [ DW_TAG_subroutine_type ]
!395 = metadata !{null, metadata !367, metadata !391, metadata !391, metadata !153}
!396 = metadata !{i32 786478, i32 0, metadata !289, metadata !"_M_limit", metadata !"_M_limit", metadata !"_ZNKSs8_M_limitEmm", metadata !120, i32 331, metadata !397, i1 false, i1 false, i32 0, i32 0, null, i32 257, i1 false, null, null, i32 0, metadata !84, i32 331} ; [ DW_TAG_subprogram ]
!397 = metadata !{i32 786453, i32 0, metadata !"", i32 0, i32 0, i64 0, i64 0, i64 0, i32 0, null, metadata !398, i32 0, i32 0} ; [ DW_TAG_subroutine_type ]
!398 = metadata !{metadata !391, metadata !367, metadata !391, metadata !391}
!399 = metadata !{i32 786478, i32 0, metadata !289, metadata !"_M_disjunct", metadata !"_M_disjunct", metadata !"_ZNKSs11_M_disjunctEPKc", metadata !120, i32 339, metadata !400, i1 false, i1 false, i32 0, i32 0, null, i32 257, i1 false, null, null, i32 0, metadata !84, i32 339} ; [ DW_TAG_subprogram ]
!400 = metadata !{i32 786453, i32 0, metadata !"", i32 0, i32 0, i64 0, i64 0, i64 0, i32 0, null, metadata !401, i32 0, i32 0} ; [ DW_TAG_subroutine_type ]
!401 = metadata !{metadata !219, metadata !367, metadata !194}
!402 = metadata !{i32 786478, i32 0, metadata !289, metadata !"_M_copy", metadata !"_M_copy", metadata !"_ZNSs7_M_copyEPcPKcm", metadata !120, i32 348, metadata !403, i1 false, i1 false, i32 0, i32 0, null, i32 257, i1 false, null, null, i32 0, metadata !84, i32 348} ; [ DW_TAG_subprogram ]
!403 = metadata !{i32 786453, i32 0, metadata !"", i32 0, i32 0, i64 0, i64 0, i64 0, i32 0, null, metadata !404, i32 0, i32 0} ; [ DW_TAG_subroutine_type ]
!404 = metadata !{null, metadata !194, metadata !194, metadata !391}
!405 = metadata !{i32 786478, i32 0, metadata !289, metadata !"_M_move", metadata !"_M_move", metadata !"_ZNSs7_M_moveEPcPKcm", metadata !120, i32 357, metadata !403, i1 false, i1 false, i32 0, i32 0, null, i32 257, i1 false, null, null, i32 0, metadata !84, i32 357} ; [ DW_TAG_subprogram ]
!406 = metadata !{i32 786478, i32 0, metadata !289, metadata !"_M_assign", metadata !"_M_assign", metadata !"_ZNSs9_M_assignEPcmc", metadata !120, i32 366, metadata !407, i1 false, i1 false, i32 0, i32 0, null, i32 257, i1 false, null, null, i32 0, metadata !84, i32 366} ; [ DW_TAG_subprogram ]
!407 = metadata !{i32 786453, i32 0, metadata !"", i32 0, i32 0, i64 0, i64 0, i64 0, i32 0, null, metadata !408, i32 0, i32 0} ; [ DW_TAG_subroutine_type ]
!408 = metadata !{null, metadata !194, metadata !391, metadata !155}
!409 = metadata !{i32 786478, i32 0, metadata !289, metadata !"_S_copy_chars", metadata !"_S_copy_chars", metadata !"_ZNSs13_S_copy_charsEPcN9__gnu_cxx17__normal_iteratorIS_SsEES2_", metadata !120, i32 385, metadata !410, i1 false, i1 false, i32 0, i32 0, null, i32 257, i1 false, null, null, i32 0, metadata !84, i32 385} ; [ DW_TAG_subprogram ]
!410 = metadata !{i32 786453, i32 0, metadata !"", i32 0, i32 0, i64 0, i64 0, i64 0, i32 0, null, metadata !411, i32 0, i32 0} ; [ DW_TAG_subroutine_type ]
!411 = metadata !{null, metadata !194, metadata !381, metadata !381}
!412 = metadata !{i32 786478, i32 0, metadata !289, metadata !"_S_copy_chars", metadata !"_S_copy_chars", metadata !"_ZNSs13_S_copy_charsEPcN9__gnu_cxx17__normal_iteratorIPKcSsEES4_", metadata !120, i32 389, metadata !413, i1 false, i1 false, i32 0, i32 0, null, i32 257, i1 false, null, null, i32 0, metadata !84, i32 389} ; [ DW_TAG_subprogram ]
!413 = metadata !{i32 786453, i32 0, metadata !"", i32 0, i32 0, i64 0, i64 0, i64 0, i32 0, null, metadata !414, i32 0, i32 0} ; [ DW_TAG_subroutine_type ]
!414 = metadata !{null, metadata !194, metadata !415, metadata !415}
!415 = metadata !{i32 786454, metadata !289, metadata !"const_iterator", metadata !290, i32 123, i64 0, i64 0, i64 0, i32 0, metadata !416} ; [ DW_TAG_typedef ]
!416 = metadata !{i32 786434, null, metadata !"__normal_iterator<const char *, std::basic_string<char> >", metadata !383, i32 702, i32 0, i32 0, i32 0, i32 4, null, null, i32 0} ; [ DW_TAG_class_type ]
!417 = metadata !{i32 786478, i32 0, metadata !289, metadata !"_S_copy_chars", metadata !"_S_copy_chars", metadata !"_ZNSs13_S_copy_charsEPcS_S_", metadata !120, i32 393, metadata !418, i1 false, i1 false, i32 0, i32 0, null, i32 257, i1 false, null, null, i32 0, metadata !84, i32 393} ; [ DW_TAG_subprogram ]
!418 = metadata !{i32 786453, i32 0, metadata !"", i32 0, i32 0, i64 0, i64 0, i64 0, i32 0, null, metadata !419, i32 0, i32 0} ; [ DW_TAG_subroutine_type ]
!419 = metadata !{null, metadata !194, metadata !194, metadata !194}
!420 = metadata !{i32 786478, i32 0, metadata !289, metadata !"_S_copy_chars", metadata !"_S_copy_chars", metadata !"_ZNSs13_S_copy_charsEPcPKcS1_", metadata !120, i32 397, metadata !418, i1 false, i1 false, i32 0, i32 0, null, i32 257, i1 false, null, null, i32 0, metadata !84, i32 397} ; [ DW_TAG_subprogram ]
!421 = metadata !{i32 786478, i32 0, metadata !289, metadata !"_S_compare", metadata !"_S_compare", metadata !"_ZNSs10_S_compareEmm", metadata !120, i32 401, metadata !422, i1 false, i1 false, i32 0, i32 0, null, i32 257, i1 false, null, null, i32 0, metadata !84, i32 401} ; [ DW_TAG_subprogram ]
!422 = metadata !{i32 786453, i32 0, metadata !"", i32 0, i32 0, i64 0, i64 0, i64 0, i32 0, null, metadata !423, i32 0, i32 0} ; [ DW_TAG_subroutine_type ]
!423 = metadata !{metadata !56, metadata !391, metadata !391}
!424 = metadata !{i32 786478, i32 0, metadata !289, metadata !"_M_mutate", metadata !"_M_mutate", metadata !"_ZNSs9_M_mutateEmmm", metadata !120, i32 414, metadata !425, i1 false, i1 false, i32 0, i32 0, null, i32 257, i1 false, null, null, i32 0, metadata !84, i32 414} ; [ DW_TAG_subprogram ]
!425 = metadata !{i32 786453, i32 0, metadata !"", i32 0, i32 0, i64 0, i64 0, i64 0, i32 0, null, metadata !426, i32 0, i32 0} ; [ DW_TAG_subroutine_type ]
!426 = metadata !{null, metadata !372, metadata !391, metadata !391, metadata !391}
!427 = metadata !{i32 786478, i32 0, metadata !289, metadata !"_M_leak_hard", metadata !"_M_leak_hard", metadata !"_ZNSs12_M_leak_hardEv", metadata !120, i32 417, metadata !386, i1 false, i1 false, i32 0, i32 0, null, i32 257, i1 false, null, null, i32 0, metadata !84, i32 417} ; [ DW_TAG_subprogram ]
!428 = metadata !{i32 786478, i32 0, metadata !289, metadata !"_S_empty_rep", metadata !"_S_empty_rep", metadata !"_ZNSs12_S_empty_repEv", metadata !120, i32 420, metadata !429, i1 false, i1 false, i32 0, i32 0, null, i32 257, i1 false, null, null, i32 0, metadata !84, i32 420} ; [ DW_TAG_subprogram ]
!429 = metadata !{i32 786453, i32 0, metadata !"", i32 0, i32 0, i64 0, i64 0, i64 0, i32 0, null, metadata !430, i32 0, i32 0} ; [ DW_TAG_subroutine_type ]
!430 = metadata !{metadata !431}
!431 = metadata !{i32 786448, null, null, null, i32 0, i64 0, i64 0, i64 0, i32 0, metadata !377} ; [ DW_TAG_reference_type ]
!432 = metadata !{i32 786478, i32 0, metadata !289, metadata !"basic_string", metadata !"basic_string", metadata !"", metadata !120, i32 431, metadata !386, i1 false, i1 false, i32 0, i32 0, null, i32 256, i1 false, null, null, i32 0, metadata !84, i32 431} ; [ DW_TAG_subprogram ]
!433 = metadata !{i32 786478, i32 0, metadata !289, metadata !"basic_string", metadata !"basic_string", metadata !"", metadata !120, i32 442, metadata !434, i1 false, i1 false, i32 0, i32 0, null, i32 384, i1 false, null, null, i32 0, metadata !84, i32 442} ; [ DW_TAG_subprogram ]
!434 = metadata !{i32 786453, i32 0, metadata !"", i32 0, i32 0, i64 0, i64 0, i64 0, i32 0, null, metadata !435, i32 0, i32 0} ; [ DW_TAG_subroutine_type ]
!435 = metadata !{null, metadata !372, metadata !363}
!436 = metadata !{i32 786478, i32 0, metadata !289, metadata !"basic_string", metadata !"basic_string", metadata !"", metadata !120, i32 449, metadata !437, i1 false, i1 false, i32 0, i32 0, null, i32 256, i1 false, null, null, i32 0, metadata !84, i32 449} ; [ DW_TAG_subprogram ]
!437 = metadata !{i32 786453, i32 0, metadata !"", i32 0, i32 0, i64 0, i64 0, i64 0, i32 0, null, metadata !438, i32 0, i32 0} ; [ DW_TAG_subroutine_type ]
!438 = metadata !{null, metadata !372, metadata !439}
!439 = metadata !{i32 786448, null, null, null, i32 0, i64 0, i64 0, i64 0, i32 0, metadata !368} ; [ DW_TAG_reference_type ]
!440 = metadata !{i32 786478, i32 0, metadata !289, metadata !"basic_string", metadata !"basic_string", metadata !"", metadata !120, i32 456, metadata !441, i1 false, i1 false, i32 0, i32 0, null, i32 256, i1 false, null, null, i32 0, metadata !84, i32 456} ; [ DW_TAG_subprogram ]
!441 = metadata !{i32 786453, i32 0, metadata !"", i32 0, i32 0, i64 0, i64 0, i64 0, i32 0, null, metadata !442, i32 0, i32 0} ; [ DW_TAG_subroutine_type ]
!442 = metadata !{null, metadata !372, metadata !439, metadata !391, metadata !391}
!443 = metadata !{i32 786478, i32 0, metadata !289, metadata !"basic_string", metadata !"basic_string", metadata !"", metadata !120, i32 465, metadata !444, i1 false, i1 false, i32 0, i32 0, null, i32 256, i1 false, null, null, i32 0, metadata !84, i32 465} ; [ DW_TAG_subprogram ]
!444 = metadata !{i32 786453, i32 0, metadata !"", i32 0, i32 0, i64 0, i64 0, i64 0, i32 0, null, metadata !445, i32 0, i32 0} ; [ DW_TAG_subroutine_type ]
!445 = metadata !{null, metadata !372, metadata !439, metadata !391, metadata !391, metadata !363}
!446 = metadata !{i32 786478, i32 0, metadata !289, metadata !"basic_string", metadata !"basic_string", metadata !"", metadata !120, i32 477, metadata !447, i1 false, i1 false, i32 0, i32 0, null, i32 256, i1 false, null, null, i32 0, metadata !84, i32 477} ; [ DW_TAG_subprogram ]
!447 = metadata !{i32 786453, i32 0, metadata !"", i32 0, i32 0, i64 0, i64 0, i64 0, i32 0, null, metadata !448, i32 0, i32 0} ; [ DW_TAG_subroutine_type ]
!448 = metadata !{null, metadata !372, metadata !194, metadata !391, metadata !363}
!449 = metadata !{i32 786478, i32 0, metadata !289, metadata !"basic_string", metadata !"basic_string", metadata !"", metadata !120, i32 484, metadata !450, i1 false, i1 false, i32 0, i32 0, null, i32 256, i1 false, null, null, i32 0, metadata !84, i32 484} ; [ DW_TAG_subprogram ]
!450 = metadata !{i32 786453, i32 0, metadata !"", i32 0, i32 0, i64 0, i64 0, i64 0, i32 0, null, metadata !451, i32 0, i32 0} ; [ DW_TAG_subroutine_type ]
!451 = metadata !{null, metadata !372, metadata !194, metadata !363}
!452 = metadata !{i32 786478, i32 0, metadata !289, metadata !"basic_string", metadata !"basic_string", metadata !"", metadata !120, i32 491, metadata !453, i1 false, i1 false, i32 0, i32 0, null, i32 256, i1 false, null, null, i32 0, metadata !84, i32 491} ; [ DW_TAG_subprogram ]
!453 = metadata !{i32 786453, i32 0, metadata !"", i32 0, i32 0, i64 0, i64 0, i64 0, i32 0, null, metadata !454, i32 0, i32 0} ; [ DW_TAG_subroutine_type ]
!454 = metadata !{null, metadata !372, metadata !391, metadata !155, metadata !363}
!455 = metadata !{i32 786478, i32 0, metadata !289, metadata !"~basic_string", metadata !"~basic_string", metadata !"", metadata !120, i32 532, metadata !386, i1 false, i1 false, i32 0, i32 0, null, i32 256, i1 false, null, null, i32 0, metadata !84, i32 532} ; [ DW_TAG_subprogram ]
!456 = metadata !{i32 786478, i32 0, metadata !289, metadata !"operator=", metadata !"operator=", metadata !"_ZNSsaSERKSs", metadata !120, i32 540, metadata !457, i1 false, i1 false, i32 0, i32 0, null, i32 256, i1 false, null, null, i32 0, metadata !84, i32 540} ; [ DW_TAG_subprogram ]
!457 = metadata !{i32 786453, i32 0, metadata !"", i32 0, i32 0, i64 0, i64 0, i64 0, i32 0, null, metadata !458, i32 0, i32 0} ; [ DW_TAG_subroutine_type ]
!458 = metadata !{metadata !459, metadata !372, metadata !439}
!459 = metadata !{i32 786448, null, null, null, i32 0, i64 0, i64 0, i64 0, i32 0, metadata !289} ; [ DW_TAG_reference_type ]
!460 = metadata !{i32 786478, i32 0, metadata !289, metadata !"operator=", metadata !"operator=", metadata !"_ZNSsaSEPKc", metadata !120, i32 548, metadata !461, i1 false, i1 false, i32 0, i32 0, null, i32 256, i1 false, null, null, i32 0, metadata !84, i32 548} ; [ DW_TAG_subprogram ]
!461 = metadata !{i32 786453, i32 0, metadata !"", i32 0, i32 0, i64 0, i64 0, i64 0, i32 0, null, metadata !462, i32 0, i32 0} ; [ DW_TAG_subroutine_type ]
!462 = metadata !{metadata !459, metadata !372, metadata !194}
!463 = metadata !{i32 786478, i32 0, metadata !289, metadata !"operator=", metadata !"operator=", metadata !"_ZNSsaSEc", metadata !120, i32 559, metadata !464, i1 false, i1 false, i32 0, i32 0, null, i32 256, i1 false, null, null, i32 0, metadata !84, i32 559} ; [ DW_TAG_subprogram ]
!464 = metadata !{i32 786453, i32 0, metadata !"", i32 0, i32 0, i64 0, i64 0, i64 0, i32 0, null, metadata !465, i32 0, i32 0} ; [ DW_TAG_subroutine_type ]
!465 = metadata !{metadata !459, metadata !372, metadata !155}
!466 = metadata !{i32 786478, i32 0, metadata !289, metadata !"begin", metadata !"begin", metadata !"_ZNSs5beginEv", metadata !120, i32 599, metadata !467, i1 false, i1 false, i32 0, i32 0, null, i32 256, i1 false, null, null, i32 0, metadata !84, i32 599} ; [ DW_TAG_subprogram ]
!467 = metadata !{i32 786453, i32 0, metadata !"", i32 0, i32 0, i64 0, i64 0, i64 0, i32 0, null, metadata !468, i32 0, i32 0} ; [ DW_TAG_subroutine_type ]
!468 = metadata !{metadata !381, metadata !372}
!469 = metadata !{i32 786478, i32 0, metadata !289, metadata !"begin", metadata !"begin", metadata !"_ZNKSs5beginEv", metadata !120, i32 610, metadata !470, i1 false, i1 false, i32 0, i32 0, null, i32 256, i1 false, null, null, i32 0, metadata !84, i32 610} ; [ DW_TAG_subprogram ]
!470 = metadata !{i32 786453, i32 0, metadata !"", i32 0, i32 0, i64 0, i64 0, i64 0, i32 0, null, metadata !471, i32 0, i32 0} ; [ DW_TAG_subroutine_type ]
!471 = metadata !{metadata !415, metadata !367}
!472 = metadata !{i32 786478, i32 0, metadata !289, metadata !"end", metadata !"end", metadata !"_ZNSs3endEv", metadata !120, i32 618, metadata !467, i1 false, i1 false, i32 0, i32 0, null, i32 256, i1 false, null, null, i32 0, metadata !84, i32 618} ; [ DW_TAG_subprogram ]
!473 = metadata !{i32 786478, i32 0, metadata !289, metadata !"end", metadata !"end", metadata !"_ZNKSs3endEv", metadata !120, i32 629, metadata !470, i1 false, i1 false, i32 0, i32 0, null, i32 256, i1 false, null, null, i32 0, metadata !84, i32 629} ; [ DW_TAG_subprogram ]
!474 = metadata !{i32 786478, i32 0, metadata !289, metadata !"rbegin", metadata !"rbegin", metadata !"_ZNSs6rbeginEv", metadata !120, i32 638, metadata !475, i1 false, i1 false, i32 0, i32 0, null, i32 256, i1 false, null, null, i32 0, metadata !84, i32 638} ; [ DW_TAG_subprogram ]
!475 = metadata !{i32 786453, i32 0, metadata !"", i32 0, i32 0, i64 0, i64 0, i64 0, i32 0, null, metadata !476, i32 0, i32 0} ; [ DW_TAG_subroutine_type ]
!476 = metadata !{metadata !477, metadata !372}
!477 = metadata !{i32 786454, metadata !289, metadata !"reverse_iterator", metadata !290, i32 125, i64 0, i64 0, i64 0, i32 0, metadata !478} ; [ DW_TAG_typedef ]
!478 = metadata !{i32 786434, null, metadata !"reverse_iterator<__gnu_cxx::__normal_iterator<char *, std::basic_string<char> > >", metadata !383, i32 97, i32 0, i32 0, i32 0, i32 4, null, null, i32 0} ; [ DW_TAG_class_type ]
!479 = metadata !{i32 786478, i32 0, metadata !289, metadata !"rbegin", metadata !"rbegin", metadata !"_ZNKSs6rbeginEv", metadata !120, i32 647, metadata !480, i1 false, i1 false, i32 0, i32 0, null, i32 256, i1 false, null, null, i32 0, metadata !84, i32 647} ; [ DW_TAG_subprogram ]
!480 = metadata !{i32 786453, i32 0, metadata !"", i32 0, i32 0, i64 0, i64 0, i64 0, i32 0, null, metadata !481, i32 0, i32 0} ; [ DW_TAG_subroutine_type ]
!481 = metadata !{metadata !482, metadata !367}
!482 = metadata !{i32 786454, metadata !289, metadata !"const_reverse_iterator", metadata !290, i32 124, i64 0, i64 0, i64 0, i32 0, metadata !483} ; [ DW_TAG_typedef ]
!483 = metadata !{i32 786434, null, metadata !"reverse_iterator<__gnu_cxx::__normal_iterator<const char *, std::basic_string<char> > >", metadata !383, i32 97, i32 0, i32 0, i32 0, i32 4, null, null, i32 0} ; [ DW_TAG_class_type ]
!484 = metadata !{i32 786478, i32 0, metadata !289, metadata !"rend", metadata !"rend", metadata !"_ZNSs4rendEv", metadata !120, i32 656, metadata !475, i1 false, i1 false, i32 0, i32 0, null, i32 256, i1 false, null, null, i32 0, metadata !84, i32 656} ; [ DW_TAG_subprogram ]
!485 = metadata !{i32 786478, i32 0, metadata !289, metadata !"rend", metadata !"rend", metadata !"_ZNKSs4rendEv", metadata !120, i32 665, metadata !480, i1 false, i1 false, i32 0, i32 0, null, i32 256, i1 false, null, null, i32 0, metadata !84, i32 665} ; [ DW_TAG_subprogram ]
!486 = metadata !{i32 786478, i32 0, metadata !289, metadata !"size", metadata !"size", metadata !"_ZNKSs4sizeEv", metadata !120, i32 709, metadata !487, i1 false, i1 false, i32 0, i32 0, null, i32 256, i1 false, null, null, i32 0, metadata !84, i32 709} ; [ DW_TAG_subprogram ]
!487 = metadata !{i32 786453, i32 0, metadata !"", i32 0, i32 0, i64 0, i64 0, i64 0, i32 0, null, metadata !488, i32 0, i32 0} ; [ DW_TAG_subroutine_type ]
!488 = metadata !{metadata !391, metadata !367}
!489 = metadata !{i32 786478, i32 0, metadata !289, metadata !"length", metadata !"length", metadata !"_ZNKSs6lengthEv", metadata !120, i32 715, metadata !487, i1 false, i1 false, i32 0, i32 0, null, i32 256, i1 false, null, null, i32 0, metadata !84, i32 715} ; [ DW_TAG_subprogram ]
!490 = metadata !{i32 786478, i32 0, metadata !289, metadata !"max_size", metadata !"max_size", metadata !"_ZNKSs8max_sizeEv", metadata !120, i32 720, metadata !487, i1 false, i1 false, i32 0, i32 0, null, i32 256, i1 false, null, null, i32 0, metadata !84, i32 720} ; [ DW_TAG_subprogram ]
!491 = metadata !{i32 786478, i32 0, metadata !289, metadata !"resize", metadata !"resize", metadata !"_ZNSs6resizeEmc", metadata !120, i32 734, metadata !492, i1 false, i1 false, i32 0, i32 0, null, i32 256, i1 false, null, null, i32 0, metadata !84, i32 734} ; [ DW_TAG_subprogram ]
!492 = metadata !{i32 786453, i32 0, metadata !"", i32 0, i32 0, i64 0, i64 0, i64 0, i32 0, null, metadata !493, i32 0, i32 0} ; [ DW_TAG_subroutine_type ]
!493 = metadata !{null, metadata !372, metadata !391, metadata !155}
!494 = metadata !{i32 786478, i32 0, metadata !289, metadata !"resize", metadata !"resize", metadata !"_ZNSs6resizeEm", metadata !120, i32 747, metadata !495, i1 false, i1 false, i32 0, i32 0, null, i32 256, i1 false, null, null, i32 0, metadata !84, i32 747} ; [ DW_TAG_subprogram ]
!495 = metadata !{i32 786453, i32 0, metadata !"", i32 0, i32 0, i64 0, i64 0, i64 0, i32 0, null, metadata !496, i32 0, i32 0} ; [ DW_TAG_subroutine_type ]
!496 = metadata !{null, metadata !372, metadata !391}
!497 = metadata !{i32 786478, i32 0, metadata !289, metadata !"capacity", metadata !"capacity", metadata !"_ZNKSs8capacityEv", metadata !120, i32 767, metadata !487, i1 false, i1 false, i32 0, i32 0, null, i32 256, i1 false, null, null, i32 0, metadata !84, i32 767} ; [ DW_TAG_subprogram ]
!498 = metadata !{i32 786478, i32 0, metadata !289, metadata !"reserve", metadata !"reserve", metadata !"_ZNSs7reserveEm", metadata !120, i32 788, metadata !495, i1 false, i1 false, i32 0, i32 0, null, i32 256, i1 false, null, null, i32 0, metadata !84, i32 788} ; [ DW_TAG_subprogram ]
!499 = metadata !{i32 786478, i32 0, metadata !289, metadata !"clear", metadata !"clear", metadata !"_ZNSs5clearEv", metadata !120, i32 794, metadata !386, i1 false, i1 false, i32 0, i32 0, null, i32 256, i1 false, null, null, i32 0, metadata !84, i32 794} ; [ DW_TAG_subprogram ]
!500 = metadata !{i32 786478, i32 0, metadata !289, metadata !"empty", metadata !"empty", metadata !"_ZNKSs5emptyEv", metadata !120, i32 802, metadata !501, i1 false, i1 false, i32 0, i32 0, null, i32 256, i1 false, null, null, i32 0, metadata !84, i32 802} ; [ DW_TAG_subprogram ]
!501 = metadata !{i32 786453, i32 0, metadata !"", i32 0, i32 0, i64 0, i64 0, i64 0, i32 0, null, metadata !502, i32 0, i32 0} ; [ DW_TAG_subroutine_type ]
!502 = metadata !{metadata !219, metadata !367}
!503 = metadata !{i32 786478, i32 0, metadata !289, metadata !"operator[]", metadata !"operator[]", metadata !"_ZNKSsixEm", metadata !120, i32 817, metadata !504, i1 false, i1 false, i32 0, i32 0, null, i32 256, i1 false, null, null, i32 0, metadata !84, i32 817} ; [ DW_TAG_subprogram ]
!504 = metadata !{i32 786453, i32 0, metadata !"", i32 0, i32 0, i64 0, i64 0, i64 0, i32 0, null, metadata !505, i32 0, i32 0} ; [ DW_TAG_subroutine_type ]
!505 = metadata !{metadata !506, metadata !367, metadata !391}
!506 = metadata !{i32 786454, metadata !289, metadata !"const_reference", metadata !290, i32 118, i64 0, i64 0, i64 0, i32 0, metadata !507} ; [ DW_TAG_typedef ]
!507 = metadata !{i32 786454, metadata !296, metadata !"const_reference", metadata !290, i32 100, i64 0, i64 0, i64 0, i32 0, metadata !320} ; [ DW_TAG_typedef ]
!508 = metadata !{i32 786478, i32 0, metadata !289, metadata !"operator[]", metadata !"operator[]", metadata !"_ZNSsixEm", metadata !120, i32 834, metadata !509, i1 false, i1 false, i32 0, i32 0, null, i32 256, i1 false, null, null, i32 0, metadata !84, i32 834} ; [ DW_TAG_subprogram ]
!509 = metadata !{i32 786453, i32 0, metadata !"", i32 0, i32 0, i64 0, i64 0, i64 0, i32 0, null, metadata !510, i32 0, i32 0} ; [ DW_TAG_subroutine_type ]
!510 = metadata !{metadata !511, metadata !372, metadata !391}
!511 = metadata !{i32 786454, metadata !289, metadata !"reference", metadata !290, i32 117, i64 0, i64 0, i64 0, i32 0, metadata !512} ; [ DW_TAG_typedef ]
!512 = metadata !{i32 786454, metadata !296, metadata !"reference", metadata !290, i32 99, i64 0, i64 0, i64 0, i32 0, metadata !320} ; [ DW_TAG_typedef ]
!513 = metadata !{i32 786478, i32 0, metadata !289, metadata !"at", metadata !"at", metadata !"_ZNKSs2atEm", metadata !120, i32 855, metadata !504, i1 false, i1 false, i32 0, i32 0, null, i32 256, i1 false, null, null, i32 0, metadata !84, i32 855} ; [ DW_TAG_subprogram ]
!514 = metadata !{i32 786478, i32 0, metadata !289, metadata !"at", metadata !"at", metadata !"_ZNSs2atEm", metadata !120, i32 908, metadata !509, i1 false, i1 false, i32 0, i32 0, null, i32 256, i1 false, null, null, i32 0, metadata !84, i32 908} ; [ DW_TAG_subprogram ]
!515 = metadata !{i32 786478, i32 0, metadata !289, metadata !"operator+=", metadata !"operator+=", metadata !"_ZNSspLERKSs", metadata !120, i32 923, metadata !457, i1 false, i1 false, i32 0, i32 0, null, i32 256, i1 false, null, null, i32 0, metadata !84, i32 923} ; [ DW_TAG_subprogram ]
!516 = metadata !{i32 786478, i32 0, metadata !289, metadata !"operator+=", metadata !"operator+=", metadata !"_ZNSspLEPKc", metadata !120, i32 932, metadata !461, i1 false, i1 false, i32 0, i32 0, null, i32 256, i1 false, null, null, i32 0, metadata !84, i32 932} ; [ DW_TAG_subprogram ]
!517 = metadata !{i32 786478, i32 0, metadata !289, metadata !"operator+=", metadata !"operator+=", metadata !"_ZNSspLEc", metadata !120, i32 941, metadata !464, i1 false, i1 false, i32 0, i32 0, null, i32 256, i1 false, null, null, i32 0, metadata !84, i32 941} ; [ DW_TAG_subprogram ]
!518 = metadata !{i32 786478, i32 0, metadata !289, metadata !"append", metadata !"append", metadata !"_ZNSs6appendERKSs", metadata !120, i32 964, metadata !457, i1 false, i1 false, i32 0, i32 0, null, i32 256, i1 false, null, null, i32 0, metadata !84, i32 964} ; [ DW_TAG_subprogram ]
!519 = metadata !{i32 786478, i32 0, metadata !289, metadata !"append", metadata !"append", metadata !"_ZNSs6appendERKSsmm", metadata !120, i32 979, metadata !520, i1 false, i1 false, i32 0, i32 0, null, i32 256, i1 false, null, null, i32 0, metadata !84, i32 979} ; [ DW_TAG_subprogram ]
!520 = metadata !{i32 786453, i32 0, metadata !"", i32 0, i32 0, i64 0, i64 0, i64 0, i32 0, null, metadata !521, i32 0, i32 0} ; [ DW_TAG_subroutine_type ]
!521 = metadata !{metadata !459, metadata !372, metadata !439, metadata !391, metadata !391}
!522 = metadata !{i32 786478, i32 0, metadata !289, metadata !"append", metadata !"append", metadata !"_ZNSs6appendEPKcm", metadata !120, i32 988, metadata !523, i1 false, i1 false, i32 0, i32 0, null, i32 256, i1 false, null, null, i32 0, metadata !84, i32 988} ; [ DW_TAG_subprogram ]
!523 = metadata !{i32 786453, i32 0, metadata !"", i32 0, i32 0, i64 0, i64 0, i64 0, i32 0, null, metadata !524, i32 0, i32 0} ; [ DW_TAG_subroutine_type ]
!524 = metadata !{metadata !459, metadata !372, metadata !194, metadata !391}
!525 = metadata !{i32 786478, i32 0, metadata !289, metadata !"append", metadata !"append", metadata !"_ZNSs6appendEPKc", metadata !120, i32 996, metadata !461, i1 false, i1 false, i32 0, i32 0, null, i32 256, i1 false, null, null, i32 0, metadata !84, i32 996} ; [ DW_TAG_subprogram ]
!526 = metadata !{i32 786478, i32 0, metadata !289, metadata !"append", metadata !"append", metadata !"_ZNSs6appendEmc", metadata !120, i32 1011, metadata !527, i1 false, i1 false, i32 0, i32 0, null, i32 256, i1 false, null, null, i32 0, metadata !84, i32 1011} ; [ DW_TAG_subprogram ]
!527 = metadata !{i32 786453, i32 0, metadata !"", i32 0, i32 0, i64 0, i64 0, i64 0, i32 0, null, metadata !528, i32 0, i32 0} ; [ DW_TAG_subroutine_type ]
!528 = metadata !{metadata !459, metadata !372, metadata !391, metadata !155}
!529 = metadata !{i32 786478, i32 0, metadata !289, metadata !"push_back", metadata !"push_back", metadata !"_ZNSs9push_backEc", metadata !120, i32 1042, metadata !530, i1 false, i1 false, i32 0, i32 0, null, i32 256, i1 false, null, null, i32 0, metadata !84, i32 1042} ; [ DW_TAG_subprogram ]
!530 = metadata !{i32 786453, i32 0, metadata !"", i32 0, i32 0, i64 0, i64 0, i64 0, i32 0, null, metadata !531, i32 0, i32 0} ; [ DW_TAG_subroutine_type ]
!531 = metadata !{null, metadata !372, metadata !155}
!532 = metadata !{i32 786478, i32 0, metadata !289, metadata !"assign", metadata !"assign", metadata !"_ZNSs6assignERKSs", metadata !120, i32 1057, metadata !457, i1 false, i1 false, i32 0, i32 0, null, i32 256, i1 false, null, null, i32 0, metadata !84, i32 1057} ; [ DW_TAG_subprogram ]
!533 = metadata !{i32 786478, i32 0, metadata !289, metadata !"assign", metadata !"assign", metadata !"_ZNSs6assignERKSsmm", metadata !120, i32 1089, metadata !520, i1 false, i1 false, i32 0, i32 0, null, i32 256, i1 false, null, null, i32 0, metadata !84, i32 1089} ; [ DW_TAG_subprogram ]
!534 = metadata !{i32 786478, i32 0, metadata !289, metadata !"assign", metadata !"assign", metadata !"_ZNSs6assignEPKcm", metadata !120, i32 1105, metadata !523, i1 false, i1 false, i32 0, i32 0, null, i32 256, i1 false, null, null, i32 0, metadata !84, i32 1105} ; [ DW_TAG_subprogram ]
!535 = metadata !{i32 786478, i32 0, metadata !289, metadata !"assign", metadata !"assign", metadata !"_ZNSs6assignEPKc", metadata !120, i32 1117, metadata !461, i1 false, i1 false, i32 0, i32 0, null, i32 256, i1 false, null, null, i32 0, metadata !84, i32 1117} ; [ DW_TAG_subprogram ]
!536 = metadata !{i32 786478, i32 0, metadata !289, metadata !"assign", metadata !"assign", metadata !"_ZNSs6assignEmc", metadata !120, i32 1133, metadata !527, i1 false, i1 false, i32 0, i32 0, null, i32 256, i1 false, null, null, i32 0, metadata !84, i32 1133} ; [ DW_TAG_subprogram ]
!537 = metadata !{i32 786478, i32 0, metadata !289, metadata !"insert", metadata !"insert", metadata !"_ZNSs6insertEN9__gnu_cxx17__normal_iteratorIPcSsEEmc", metadata !120, i32 1173, metadata !538, i1 false, i1 false, i32 0, i32 0, null, i32 256, i1 false, null, null, i32 0, metadata !84, i32 1173} ; [ DW_TAG_subprogram ]
!538 = metadata !{i32 786453, i32 0, metadata !"", i32 0, i32 0, i64 0, i64 0, i64 0, i32 0, null, metadata !539, i32 0, i32 0} ; [ DW_TAG_subroutine_type ]
!539 = metadata !{null, metadata !372, metadata !381, metadata !391, metadata !155}
!540 = metadata !{i32 786478, i32 0, metadata !289, metadata !"insert", metadata !"insert", metadata !"_ZNSs6insertEmRKSs", metadata !120, i32 1219, metadata !541, i1 false, i1 false, i32 0, i32 0, null, i32 256, i1 false, null, null, i32 0, metadata !84, i32 1219} ; [ DW_TAG_subprogram ]
!541 = metadata !{i32 786453, i32 0, metadata !"", i32 0, i32 0, i64 0, i64 0, i64 0, i32 0, null, metadata !542, i32 0, i32 0} ; [ DW_TAG_subroutine_type ]
!542 = metadata !{metadata !459, metadata !372, metadata !391, metadata !439}
!543 = metadata !{i32 786478, i32 0, metadata !289, metadata !"insert", metadata !"insert", metadata !"_ZNSs6insertEmRKSsmm", metadata !120, i32 1241, metadata !544, i1 false, i1 false, i32 0, i32 0, null, i32 256, i1 false, null, null, i32 0, metadata !84, i32 1241} ; [ DW_TAG_subprogram ]
!544 = metadata !{i32 786453, i32 0, metadata !"", i32 0, i32 0, i64 0, i64 0, i64 0, i32 0, null, metadata !545, i32 0, i32 0} ; [ DW_TAG_subroutine_type ]
!545 = metadata !{metadata !459, metadata !372, metadata !391, metadata !439, metadata !391, metadata !391}
!546 = metadata !{i32 786478, i32 0, metadata !289, metadata !"insert", metadata !"insert", metadata !"_ZNSs6insertEmPKcm", metadata !120, i32 1264, metadata !547, i1 false, i1 false, i32 0, i32 0, null, i32 256, i1 false, null, null, i32 0, metadata !84, i32 1264} ; [ DW_TAG_subprogram ]
!547 = metadata !{i32 786453, i32 0, metadata !"", i32 0, i32 0, i64 0, i64 0, i64 0, i32 0, null, metadata !548, i32 0, i32 0} ; [ DW_TAG_subroutine_type ]
!548 = metadata !{metadata !459, metadata !372, metadata !391, metadata !194, metadata !391}
!549 = metadata !{i32 786478, i32 0, metadata !289, metadata !"insert", metadata !"insert", metadata !"_ZNSs6insertEmPKc", metadata !120, i32 1282, metadata !550, i1 false, i1 false, i32 0, i32 0, null, i32 256, i1 false, null, null, i32 0, metadata !84, i32 1282} ; [ DW_TAG_subprogram ]
!550 = metadata !{i32 786453, i32 0, metadata !"", i32 0, i32 0, i64 0, i64 0, i64 0, i32 0, null, metadata !551, i32 0, i32 0} ; [ DW_TAG_subroutine_type ]
!551 = metadata !{metadata !459, metadata !372, metadata !391, metadata !194}
!552 = metadata !{i32 786478, i32 0, metadata !289, metadata !"insert", metadata !"insert", metadata !"_ZNSs6insertEmmc", metadata !120, i32 1305, metadata !553, i1 false, i1 false, i32 0, i32 0, null, i32 256, i1 false, null, null, i32 0, metadata !84, i32 1305} ; [ DW_TAG_subprogram ]
!553 = metadata !{i32 786453, i32 0, metadata !"", i32 0, i32 0, i64 0, i64 0, i64 0, i32 0, null, metadata !554, i32 0, i32 0} ; [ DW_TAG_subroutine_type ]
!554 = metadata !{metadata !459, metadata !372, metadata !391, metadata !391, metadata !155}
!555 = metadata !{i32 786478, i32 0, metadata !289, metadata !"insert", metadata !"insert", metadata !"_ZNSs6insertEN9__gnu_cxx17__normal_iteratorIPcSsEEc", metadata !120, i32 1322, metadata !556, i1 false, i1 false, i32 0, i32 0, null, i32 256, i1 false, null, null, i32 0, metadata !84, i32 1322} ; [ DW_TAG_subprogram ]
!556 = metadata !{i32 786453, i32 0, metadata !"", i32 0, i32 0, i64 0, i64 0, i64 0, i32 0, null, metadata !557, i32 0, i32 0} ; [ DW_TAG_subroutine_type ]
!557 = metadata !{metadata !381, metadata !372, metadata !381, metadata !155}
!558 = metadata !{i32 786478, i32 0, metadata !289, metadata !"erase", metadata !"erase", metadata !"_ZNSs5eraseEmm", metadata !120, i32 1346, metadata !559, i1 false, i1 false, i32 0, i32 0, null, i32 256, i1 false, null, null, i32 0, metadata !84, i32 1346} ; [ DW_TAG_subprogram ]
!559 = metadata !{i32 786453, i32 0, metadata !"", i32 0, i32 0, i64 0, i64 0, i64 0, i32 0, null, metadata !560, i32 0, i32 0} ; [ DW_TAG_subroutine_type ]
!560 = metadata !{metadata !459, metadata !372, metadata !391, metadata !391}
!561 = metadata !{i32 786478, i32 0, metadata !289, metadata !"erase", metadata !"erase", metadata !"_ZNSs5eraseEN9__gnu_cxx17__normal_iteratorIPcSsEE", metadata !120, i32 1362, metadata !562, i1 false, i1 false, i32 0, i32 0, null, i32 256, i1 false, null, null, i32 0, metadata !84, i32 1362} ; [ DW_TAG_subprogram ]
!562 = metadata !{i32 786453, i32 0, metadata !"", i32 0, i32 0, i64 0, i64 0, i64 0, i32 0, null, metadata !563, i32 0, i32 0} ; [ DW_TAG_subroutine_type ]
!563 = metadata !{metadata !381, metadata !372, metadata !381}
!564 = metadata !{i32 786478, i32 0, metadata !289, metadata !"erase", metadata !"erase", metadata !"_ZNSs5eraseEN9__gnu_cxx17__normal_iteratorIPcSsEES2_", metadata !120, i32 1382, metadata !565, i1 false, i1 false, i32 0, i32 0, null, i32 256, i1 false, null, null, i32 0, metadata !84, i32 1382} ; [ DW_TAG_subprogram ]
!565 = metadata !{i32 786453, i32 0, metadata !"", i32 0, i32 0, i64 0, i64 0, i64 0, i32 0, null, metadata !566, i32 0, i32 0} ; [ DW_TAG_subroutine_type ]
!566 = metadata !{metadata !381, metadata !372, metadata !381, metadata !381}
!567 = metadata !{i32 786478, i32 0, metadata !289, metadata !"replace", metadata !"replace", metadata !"_ZNSs7replaceEmmRKSs", metadata !120, i32 1401, metadata !568, i1 false, i1 false, i32 0, i32 0, null, i32 256, i1 false, null, null, i32 0, metadata !84, i32 1401} ; [ DW_TAG_subprogram ]
!568 = metadata !{i32 786453, i32 0, metadata !"", i32 0, i32 0, i64 0, i64 0, i64 0, i32 0, null, metadata !569, i32 0, i32 0} ; [ DW_TAG_subroutine_type ]
!569 = metadata !{metadata !459, metadata !372, metadata !391, metadata !391, metadata !439}
!570 = metadata !{i32 786478, i32 0, metadata !289, metadata !"replace", metadata !"replace", metadata !"_ZNSs7replaceEmmRKSsmm", metadata !120, i32 1423, metadata !571, i1 false, i1 false, i32 0, i32 0, null, i32 256, i1 false, null, null, i32 0, metadata !84, i32 1423} ; [ DW_TAG_subprogram ]
!571 = metadata !{i32 786453, i32 0, metadata !"", i32 0, i32 0, i64 0, i64 0, i64 0, i32 0, null, metadata !572, i32 0, i32 0} ; [ DW_TAG_subroutine_type ]
!572 = metadata !{metadata !459, metadata !372, metadata !391, metadata !391, metadata !439, metadata !391, metadata !391}
!573 = metadata !{i32 786478, i32 0, metadata !289, metadata !"replace", metadata !"replace", metadata !"_ZNSs7replaceEmmPKcm", metadata !120, i32 1447, metadata !574, i1 false, i1 false, i32 0, i32 0, null, i32 256, i1 false, null, null, i32 0, metadata !84, i32 1447} ; [ DW_TAG_subprogram ]
!574 = metadata !{i32 786453, i32 0, metadata !"", i32 0, i32 0, i64 0, i64 0, i64 0, i32 0, null, metadata !575, i32 0, i32 0} ; [ DW_TAG_subroutine_type ]
!575 = metadata !{metadata !459, metadata !372, metadata !391, metadata !391, metadata !194, metadata !391}
!576 = metadata !{i32 786478, i32 0, metadata !289, metadata !"replace", metadata !"replace", metadata !"_ZNSs7replaceEmmPKc", metadata !120, i32 1466, metadata !577, i1 false, i1 false, i32 0, i32 0, null, i32 256, i1 false, null, null, i32 0, metadata !84, i32 1466} ; [ DW_TAG_subprogram ]
!577 = metadata !{i32 786453, i32 0, metadata !"", i32 0, i32 0, i64 0, i64 0, i64 0, i32 0, null, metadata !578, i32 0, i32 0} ; [ DW_TAG_subroutine_type ]
!578 = metadata !{metadata !459, metadata !372, metadata !391, metadata !391, metadata !194}
!579 = metadata !{i32 786478, i32 0, metadata !289, metadata !"replace", metadata !"replace", metadata !"_ZNSs7replaceEmmmc", metadata !120, i32 1489, metadata !580, i1 false, i1 false, i32 0, i32 0, null, i32 256, i1 false, null, null, i32 0, metadata !84, i32 1489} ; [ DW_TAG_subprogram ]
!580 = metadata !{i32 786453, i32 0, metadata !"", i32 0, i32 0, i64 0, i64 0, i64 0, i32 0, null, metadata !581, i32 0, i32 0} ; [ DW_TAG_subroutine_type ]
!581 = metadata !{metadata !459, metadata !372, metadata !391, metadata !391, metadata !391, metadata !155}
!582 = metadata !{i32 786478, i32 0, metadata !289, metadata !"replace", metadata !"replace", metadata !"_ZNSs7replaceEN9__gnu_cxx17__normal_iteratorIPcSsEES2_RKSs", metadata !120, i32 1507, metadata !583, i1 false, i1 false, i32 0, i32 0, null, i32 256, i1 false, null, null, i32 0, metadata !84, i32 1507} ; [ DW_TAG_subprogram ]
!583 = metadata !{i32 786453, i32 0, metadata !"", i32 0, i32 0, i64 0, i64 0, i64 0, i32 0, null, metadata !584, i32 0, i32 0} ; [ DW_TAG_subroutine_type ]
!584 = metadata !{metadata !459, metadata !372, metadata !381, metadata !381, metadata !439}
!585 = metadata !{i32 786478, i32 0, metadata !289, metadata !"replace", metadata !"replace", metadata !"_ZNSs7replaceEN9__gnu_cxx17__normal_iteratorIPcSsEES2_PKcm", metadata !120, i32 1525, metadata !586, i1 false, i1 false, i32 0, i32 0, null, i32 256, i1 false, null, null, i32 0, metadata !84, i32 1525} ; [ DW_TAG_subprogram ]
!586 = metadata !{i32 786453, i32 0, metadata !"", i32 0, i32 0, i64 0, i64 0, i64 0, i32 0, null, metadata !587, i32 0, i32 0} ; [ DW_TAG_subroutine_type ]
!587 = metadata !{metadata !459, metadata !372, metadata !381, metadata !381, metadata !194, metadata !391}
!588 = metadata !{i32 786478, i32 0, metadata !289, metadata !"replace", metadata !"replace", metadata !"_ZNSs7replaceEN9__gnu_cxx17__normal_iteratorIPcSsEES2_PKc", metadata !120, i32 1546, metadata !589, i1 false, i1 false, i32 0, i32 0, null, i32 256, i1 false, null, null, i32 0, metadata !84, i32 1546} ; [ DW_TAG_subprogram ]
!589 = metadata !{i32 786453, i32 0, metadata !"", i32 0, i32 0, i64 0, i64 0, i64 0, i32 0, null, metadata !590, i32 0, i32 0} ; [ DW_TAG_subroutine_type ]
!590 = metadata !{metadata !459, metadata !372, metadata !381, metadata !381, metadata !194}
!591 = metadata !{i32 786478, i32 0, metadata !289, metadata !"replace", metadata !"replace", metadata !"_ZNSs7replaceEN9__gnu_cxx17__normal_iteratorIPcSsEES2_mc", metadata !120, i32 1567, metadata !592, i1 false, i1 false, i32 0, i32 0, null, i32 256, i1 false, null, null, i32 0, metadata !84, i32 1567} ; [ DW_TAG_subprogram ]
!592 = metadata !{i32 786453, i32 0, metadata !"", i32 0, i32 0, i64 0, i64 0, i64 0, i32 0, null, metadata !593, i32 0, i32 0} ; [ DW_TAG_subroutine_type ]
!593 = metadata !{metadata !459, metadata !372, metadata !381, metadata !381, metadata !391, metadata !155}
!594 = metadata !{i32 786478, i32 0, metadata !289, metadata !"replace", metadata !"replace", metadata !"_ZNSs7replaceEN9__gnu_cxx17__normal_iteratorIPcSsEES2_S1_S1_", metadata !120, i32 1603, metadata !595, i1 false, i1 false, i32 0, i32 0, null, i32 256, i1 false, null, null, i32 0, metadata !84, i32 1603} ; [ DW_TAG_subprogram ]
!595 = metadata !{i32 786453, i32 0, metadata !"", i32 0, i32 0, i64 0, i64 0, i64 0, i32 0, null, metadata !596, i32 0, i32 0} ; [ DW_TAG_subroutine_type ]
!596 = metadata !{metadata !459, metadata !372, metadata !381, metadata !381, metadata !194, metadata !194}
!597 = metadata !{i32 786478, i32 0, metadata !289, metadata !"replace", metadata !"replace", metadata !"_ZNSs7replaceEN9__gnu_cxx17__normal_iteratorIPcSsEES2_PKcS4_", metadata !120, i32 1613, metadata !595, i1 false, i1 false, i32 0, i32 0, null, i32 256, i1 false, null, null, i32 0, metadata !84, i32 1613} ; [ DW_TAG_subprogram ]
!598 = metadata !{i32 786478, i32 0, metadata !289, metadata !"replace", metadata !"replace", metadata !"_ZNSs7replaceEN9__gnu_cxx17__normal_iteratorIPcSsEES2_S2_S2_", metadata !120, i32 1624, metadata !599, i1 false, i1 false, i32 0, i32 0, null, i32 256, i1 false, null, null, i32 0, metadata !84, i32 1624} ; [ DW_TAG_subprogram ]
!599 = metadata !{i32 786453, i32 0, metadata !"", i32 0, i32 0, i64 0, i64 0, i64 0, i32 0, null, metadata !600, i32 0, i32 0} ; [ DW_TAG_subroutine_type ]
!600 = metadata !{metadata !459, metadata !372, metadata !381, metadata !381, metadata !381, metadata !381}
!601 = metadata !{i32 786478, i32 0, metadata !289, metadata !"replace", metadata !"replace", metadata !"_ZNSs7replaceEN9__gnu_cxx17__normal_iteratorIPcSsEES2_NS0_IPKcSsEES5_", metadata !120, i32 1634, metadata !602, i1 false, i1 false, i32 0, i32 0, null, i32 256, i1 false, null, null, i32 0, metadata !84, i32 1634} ; [ DW_TAG_subprogram ]
!602 = metadata !{i32 786453, i32 0, metadata !"", i32 0, i32 0, i64 0, i64 0, i64 0, i32 0, null, metadata !603, i32 0, i32 0} ; [ DW_TAG_subroutine_type ]
!603 = metadata !{metadata !459, metadata !372, metadata !381, metadata !381, metadata !415, metadata !415}
!604 = metadata !{i32 786478, i32 0, metadata !289, metadata !"_M_replace_aux", metadata !"_M_replace_aux", metadata !"_ZNSs14_M_replace_auxEmmmc", metadata !120, i32 1676, metadata !580, i1 false, i1 false, i32 0, i32 0, null, i32 257, i1 false, null, null, i32 0, metadata !84, i32 1676} ; [ DW_TAG_subprogram ]
!605 = metadata !{i32 786478, i32 0, metadata !289, metadata !"_M_replace_safe", metadata !"_M_replace_safe", metadata !"_ZNSs15_M_replace_safeEmmPKcm", metadata !120, i32 1680, metadata !574, i1 false, i1 false, i32 0, i32 0, null, i32 257, i1 false, null, null, i32 0, metadata !84, i32 1680} ; [ DW_TAG_subprogram ]
!606 = metadata !{i32 786478, i32 0, metadata !289, metadata !"_S_construct_aux_2", metadata !"_S_construct_aux_2", metadata !"_ZNSs18_S_construct_aux_2EmcRKSaIcE", metadata !120, i32 1704, metadata !607, i1 false, i1 false, i32 0, i32 0, null, i32 257, i1 false, null, null, i32 0, metadata !84, i32 1704} ; [ DW_TAG_subprogram ]
!607 = metadata !{i32 786453, i32 0, metadata !"", i32 0, i32 0, i64 0, i64 0, i64 0, i32 0, null, metadata !608, i32 0, i32 0} ; [ DW_TAG_subroutine_type ]
!608 = metadata !{metadata !194, metadata !391, metadata !155, metadata !363}
!609 = metadata !{i32 786478, i32 0, metadata !289, metadata !"_S_construct", metadata !"_S_construct", metadata !"_ZNSs12_S_constructEmcRKSaIcE", metadata !120, i32 1729, metadata !607, i1 false, i1 false, i32 0, i32 0, null, i32 257, i1 false, null, null, i32 0, metadata !84, i32 1729} ; [ DW_TAG_subprogram ]
!610 = metadata !{i32 786478, i32 0, metadata !289, metadata !"copy", metadata !"copy", metadata !"_ZNKSs4copyEPcmm", metadata !120, i32 1745, metadata !611, i1 false, i1 false, i32 0, i32 0, null, i32 256, i1 false, null, null, i32 0, metadata !84, i32 1745} ; [ DW_TAG_subprogram ]
!611 = metadata !{i32 786453, i32 0, metadata !"", i32 0, i32 0, i64 0, i64 0, i64 0, i32 0, null, metadata !612, i32 0, i32 0} ; [ DW_TAG_subroutine_type ]
!612 = metadata !{metadata !391, metadata !367, metadata !194, metadata !391, metadata !391}
!613 = metadata !{i32 786478, i32 0, metadata !289, metadata !"swap", metadata !"swap", metadata !"_ZNSs4swapERSs", metadata !120, i32 1755, metadata !614, i1 false, i1 false, i32 0, i32 0, null, i32 256, i1 false, null, null, i32 0, metadata !84, i32 1755} ; [ DW_TAG_subprogram ]
!614 = metadata !{i32 786453, i32 0, metadata !"", i32 0, i32 0, i64 0, i64 0, i64 0, i32 0, null, metadata !615, i32 0, i32 0} ; [ DW_TAG_subroutine_type ]
!615 = metadata !{null, metadata !372, metadata !459}
!616 = metadata !{i32 786478, i32 0, metadata !289, metadata !"c_str", metadata !"c_str", metadata !"_ZNKSs5c_strEv", metadata !120, i32 1765, metadata !365, i1 false, i1 false, i32 0, i32 0, null, i32 256, i1 false, null, null, i32 0, metadata !84, i32 1765} ; [ DW_TAG_subprogram ]
!617 = metadata !{i32 786478, i32 0, metadata !289, metadata !"data", metadata !"data", metadata !"_ZNKSs4dataEv", metadata !120, i32 1775, metadata !365, i1 false, i1 false, i32 0, i32 0, null, i32 256, i1 false, null, null, i32 0, metadata !84, i32 1775} ; [ DW_TAG_subprogram ]
!618 = metadata !{i32 786478, i32 0, metadata !289, metadata !"get_allocator", metadata !"get_allocator", metadata !"_ZNKSs13get_allocatorEv", metadata !120, i32 1782, metadata !619, i1 false, i1 false, i32 0, i32 0, null, i32 256, i1 false, null, null, i32 0, metadata !84, i32 1782} ; [ DW_TAG_subprogram ]
!619 = metadata !{i32 786453, i32 0, metadata !"", i32 0, i32 0, i64 0, i64 0, i64 0, i32 0, null, metadata !620, i32 0, i32 0} ; [ DW_TAG_subroutine_type ]
!620 = metadata !{metadata !621, metadata !367}
!621 = metadata !{i32 786454, metadata !289, metadata !"allocator_type", metadata !290, i32 114, i64 0, i64 0, i64 0, i32 0, metadata !296} ; [ DW_TAG_typedef ]
!622 = metadata !{i32 786478, i32 0, metadata !289, metadata !"find", metadata !"find", metadata !"_ZNKSs4findEPKcmm", metadata !120, i32 1797, metadata !611, i1 false, i1 false, i32 0, i32 0, null, i32 256, i1 false, null, null, i32 0, metadata !84, i32 1797} ; [ DW_TAG_subprogram ]
!623 = metadata !{i32 786478, i32 0, metadata !289, metadata !"find", metadata !"find", metadata !"_ZNKSs4findERKSsm", metadata !120, i32 1810, metadata !624, i1 false, i1 false, i32 0, i32 0, null, i32 256, i1 false, null, null, i32 0, metadata !84, i32 1810} ; [ DW_TAG_subprogram ]
!624 = metadata !{i32 786453, i32 0, metadata !"", i32 0, i32 0, i64 0, i64 0, i64 0, i32 0, null, metadata !625, i32 0, i32 0} ; [ DW_TAG_subroutine_type ]
!625 = metadata !{metadata !391, metadata !367, metadata !439, metadata !391}
!626 = metadata !{i32 786478, i32 0, metadata !289, metadata !"find", metadata !"find", metadata !"_ZNKSs4findEPKcm", metadata !120, i32 1824, metadata !627, i1 false, i1 false, i32 0, i32 0, null, i32 256, i1 false, null, null, i32 0, metadata !84, i32 1824} ; [ DW_TAG_subprogram ]
!627 = metadata !{i32 786453, i32 0, metadata !"", i32 0, i32 0, i64 0, i64 0, i64 0, i32 0, null, metadata !628, i32 0, i32 0} ; [ DW_TAG_subroutine_type ]
!628 = metadata !{metadata !391, metadata !367, metadata !194, metadata !391}
!629 = metadata !{i32 786478, i32 0, metadata !289, metadata !"find", metadata !"find", metadata !"_ZNKSs4findEcm", metadata !120, i32 1841, metadata !630, i1 false, i1 false, i32 0, i32 0, null, i32 256, i1 false, null, null, i32 0, metadata !84, i32 1841} ; [ DW_TAG_subprogram ]
!630 = metadata !{i32 786453, i32 0, metadata !"", i32 0, i32 0, i64 0, i64 0, i64 0, i32 0, null, metadata !631, i32 0, i32 0} ; [ DW_TAG_subroutine_type ]
!631 = metadata !{metadata !391, metadata !367, metadata !155, metadata !391}
!632 = metadata !{i32 786478, i32 0, metadata !289, metadata !"rfind", metadata !"rfind", metadata !"_ZNKSs5rfindERKSsm", metadata !120, i32 1854, metadata !624, i1 false, i1 false, i32 0, i32 0, null, i32 256, i1 false, null, null, i32 0, metadata !84, i32 1854} ; [ DW_TAG_subprogram ]
!633 = metadata !{i32 786478, i32 0, metadata !289, metadata !"rfind", metadata !"rfind", metadata !"_ZNKSs5rfindEPKcmm", metadata !120, i32 1869, metadata !611, i1 false, i1 false, i32 0, i32 0, null, i32 256, i1 false, null, null, i32 0, metadata !84, i32 1869} ; [ DW_TAG_subprogram ]
!634 = metadata !{i32 786478, i32 0, metadata !289, metadata !"rfind", metadata !"rfind", metadata !"_ZNKSs5rfindEPKcm", metadata !120, i32 1882, metadata !627, i1 false, i1 false, i32 0, i32 0, null, i32 256, i1 false, null, null, i32 0, metadata !84, i32 1882} ; [ DW_TAG_subprogram ]
!635 = metadata !{i32 786478, i32 0, metadata !289, metadata !"rfind", metadata !"rfind", metadata !"_ZNKSs5rfindEcm", metadata !120, i32 1899, metadata !630, i1 false, i1 false, i32 0, i32 0, null, i32 256, i1 false, null, null, i32 0, metadata !84, i32 1899} ; [ DW_TAG_subprogram ]
!636 = metadata !{i32 786478, i32 0, metadata !289, metadata !"find_first_of", metadata !"find_first_of", metadata !"_ZNKSs13find_first_ofERKSsm", metadata !120, i32 1912, metadata !624, i1 false, i1 false, i32 0, i32 0, null, i32 256, i1 false, null, null, i32 0, metadata !84, i32 1912} ; [ DW_TAG_subprogram ]
!637 = metadata !{i32 786478, i32 0, metadata !289, metadata !"find_first_of", metadata !"find_first_of", metadata !"_ZNKSs13find_first_ofEPKcmm", metadata !120, i32 1927, metadata !611, i1 false, i1 false, i32 0, i32 0, null, i32 256, i1 false, null, null, i32 0, metadata !84, i32 1927} ; [ DW_TAG_subprogram ]
!638 = metadata !{i32 786478, i32 0, metadata !289, metadata !"find_first_of", metadata !"find_first_of", metadata !"_ZNKSs13find_first_ofEPKcm", metadata !120, i32 1940, metadata !627, i1 false, i1 false, i32 0, i32 0, null, i32 256, i1 false, null, null, i32 0, metadata !84, i32 1940} ; [ DW_TAG_subprogram ]
!639 = metadata !{i32 786478, i32 0, metadata !289, metadata !"find_first_of", metadata !"find_first_of", metadata !"_ZNKSs13find_first_ofEcm", metadata !120, i32 1959, metadata !630, i1 false, i1 false, i32 0, i32 0, null, i32 256, i1 false, null, null, i32 0, metadata !84, i32 1959} ; [ DW_TAG_subprogram ]
!640 = metadata !{i32 786478, i32 0, metadata !289, metadata !"find_last_of", metadata !"find_last_of", metadata !"_ZNKSs12find_last_ofERKSsm", metadata !120, i32 1973, metadata !624, i1 false, i1 false, i32 0, i32 0, null, i32 256, i1 false, null, null, i32 0, metadata !84, i32 1973} ; [ DW_TAG_subprogram ]
!641 = metadata !{i32 786478, i32 0, metadata !289, metadata !"find_last_of", metadata !"find_last_of", metadata !"_ZNKSs12find_last_ofEPKcmm", metadata !120, i32 1988, metadata !611, i1 false, i1 false, i32 0, i32 0, null, i32 256, i1 false, null, null, i32 0, metadata !84, i32 1988} ; [ DW_TAG_subprogram ]
!642 = metadata !{i32 786478, i32 0, metadata !289, metadata !"find_last_of", metadata !"find_last_of", metadata !"_ZNKSs12find_last_ofEPKcm", metadata !120, i32 2001, metadata !627, i1 false, i1 false, i32 0, i32 0, null, i32 256, i1 false, null, null, i32 0, metadata !84, i32 2001} ; [ DW_TAG_subprogram ]
!643 = metadata !{i32 786478, i32 0, metadata !289, metadata !"find_last_of", metadata !"find_last_of", metadata !"_ZNKSs12find_last_ofEcm", metadata !120, i32 2020, metadata !630, i1 false, i1 false, i32 0, i32 0, null, i32 256, i1 false, null, null, i32 0, metadata !84, i32 2020} ; [ DW_TAG_subprogram ]
!644 = metadata !{i32 786478, i32 0, metadata !289, metadata !"find_first_not_of", metadata !"find_first_not_of", metadata !"_ZNKSs17find_first_not_ofERKSsm", metadata !120, i32 2034, metadata !624, i1 false, i1 false, i32 0, i32 0, null, i32 256, i1 false, null, null, i32 0, metadata !84, i32 2034} ; [ DW_TAG_subprogram ]
!645 = metadata !{i32 786478, i32 0, metadata !289, metadata !"find_first_not_of", metadata !"find_first_not_of", metadata !"_ZNKSs17find_first_not_ofEPKcmm", metadata !120, i32 2049, metadata !611, i1 false, i1 false, i32 0, i32 0, null, i32 256, i1 false, null, null, i32 0, metadata !84, i32 2049} ; [ DW_TAG_subprogram ]
!646 = metadata !{i32 786478, i32 0, metadata !289, metadata !"find_first_not_of", metadata !"find_first_not_of", metadata !"_ZNKSs17find_first_not_ofEPKcm", metadata !120, i32 2063, metadata !627, i1 false, i1 false, i32 0, i32 0, null, i32 256, i1 false, null, null, i32 0, metadata !84, i32 2063} ; [ DW_TAG_subprogram ]
!647 = metadata !{i32 786478, i32 0, metadata !289, metadata !"find_first_not_of", metadata !"find_first_not_of", metadata !"_ZNKSs17find_first_not_ofEcm", metadata !120, i32 2080, metadata !630, i1 false, i1 false, i32 0, i32 0, null, i32 256, i1 false, null, null, i32 0, metadata !84, i32 2080} ; [ DW_TAG_subprogram ]
!648 = metadata !{i32 786478, i32 0, metadata !289, metadata !"find_last_not_of", metadata !"find_last_not_of", metadata !"_ZNKSs16find_last_not_ofERKSsm", metadata !120, i32 2093, metadata !624, i1 false, i1 false, i32 0, i32 0, null, i32 256, i1 false, null, null, i32 0, metadata !84, i32 2093} ; [ DW_TAG_subprogram ]
!649 = metadata !{i32 786478, i32 0, metadata !289, metadata !"find_last_not_of", metadata !"find_last_not_of", metadata !"_ZNKSs16find_last_not_ofEPKcmm", metadata !120, i32 2109, metadata !611, i1 false, i1 false, i32 0, i32 0, null, i32 256, i1 false, null, null, i32 0, metadata !84, i32 2109} ; [ DW_TAG_subprogram ]
!650 = metadata !{i32 786478, i32 0, metadata !289, metadata !"find_last_not_of", metadata !"find_last_not_of", metadata !"_ZNKSs16find_last_not_ofEPKcm", metadata !120, i32 2122, metadata !627, i1 false, i1 false, i32 0, i32 0, null, i32 256, i1 false, null, null, i32 0, metadata !84, i32 2122} ; [ DW_TAG_subprogram ]
!651 = metadata !{i32 786478, i32 0, metadata !289, metadata !"find_last_not_of", metadata !"find_last_not_of", metadata !"_ZNKSs16find_last_not_ofEcm", metadata !120, i32 2139, metadata !630, i1 false, i1 false, i32 0, i32 0, null, i32 256, i1 false, null, null, i32 0, metadata !84, i32 2139} ; [ DW_TAG_subprogram ]
!652 = metadata !{i32 786478, i32 0, metadata !289, metadata !"substr", metadata !"substr", metadata !"_ZNKSs6substrEmm", metadata !120, i32 2154, metadata !653, i1 false, i1 false, i32 0, i32 0, null, i32 256, i1 false, null, null, i32 0, metadata !84, i32 2154} ; [ DW_TAG_subprogram ]
!653 = metadata !{i32 786453, i32 0, metadata !"", i32 0, i32 0, i64 0, i64 0, i64 0, i32 0, null, metadata !654, i32 0, i32 0} ; [ DW_TAG_subroutine_type ]
!654 = metadata !{metadata !289, metadata !367, metadata !391, metadata !391}
!655 = metadata !{i32 786478, i32 0, metadata !289, metadata !"compare", metadata !"compare", metadata !"_ZNKSs7compareERKSs", metadata !120, i32 2172, metadata !656, i1 false, i1 false, i32 0, i32 0, null, i32 256, i1 false, null, null, i32 0, metadata !84, i32 2172} ; [ DW_TAG_subprogram ]
!656 = metadata !{i32 786453, i32 0, metadata !"", i32 0, i32 0, i64 0, i64 0, i64 0, i32 0, null, metadata !657, i32 0, i32 0} ; [ DW_TAG_subroutine_type ]
!657 = metadata !{metadata !56, metadata !367, metadata !439}
!658 = metadata !{i32 786478, i32 0, metadata !289, metadata !"compare", metadata !"compare", metadata !"_ZNKSs7compareEmmRKSs", metadata !120, i32 2202, metadata !659, i1 false, i1 false, i32 0, i32 0, null, i32 256, i1 false, null, null, i32 0, metadata !84, i32 2202} ; [ DW_TAG_subprogram ]
!659 = metadata !{i32 786453, i32 0, metadata !"", i32 0, i32 0, i64 0, i64 0, i64 0, i32 0, null, metadata !660, i32 0, i32 0} ; [ DW_TAG_subroutine_type ]
!660 = metadata !{metadata !56, metadata !367, metadata !391, metadata !391, metadata !439}
!661 = metadata !{i32 786478, i32 0, metadata !289, metadata !"compare", metadata !"compare", metadata !"_ZNKSs7compareEmmRKSsmm", metadata !120, i32 2226, metadata !662, i1 false, i1 false, i32 0, i32 0, null, i32 256, i1 false, null, null, i32 0, metadata !84, i32 2226} ; [ DW_TAG_subprogram ]
!662 = metadata !{i32 786453, i32 0, metadata !"", i32 0, i32 0, i64 0, i64 0, i64 0, i32 0, null, metadata !663, i32 0, i32 0} ; [ DW_TAG_subroutine_type ]
!663 = metadata !{metadata !56, metadata !367, metadata !391, metadata !391, metadata !439, metadata !391, metadata !391}
!664 = metadata !{i32 786478, i32 0, metadata !289, metadata !"compare", metadata !"compare", metadata !"_ZNKSs7compareEPKc", metadata !120, i32 2244, metadata !665, i1 false, i1 false, i32 0, i32 0, null, i32 256, i1 false, null, null, i32 0, metadata !84, i32 2244} ; [ DW_TAG_subprogram ]
!665 = metadata !{i32 786453, i32 0, metadata !"", i32 0, i32 0, i64 0, i64 0, i64 0, i32 0, null, metadata !666, i32 0, i32 0} ; [ DW_TAG_subroutine_type ]
!666 = metadata !{metadata !56, metadata !367, metadata !194}
!667 = metadata !{i32 786478, i32 0, metadata !289, metadata !"compare", metadata !"compare", metadata !"_ZNKSs7compareEmmPKc", metadata !120, i32 2267, metadata !668, i1 false, i1 false, i32 0, i32 0, null, i32 256, i1 false, null, null, i32 0, metadata !84, i32 2267} ; [ DW_TAG_subprogram ]
!668 = metadata !{i32 786453, i32 0, metadata !"", i32 0, i32 0, i64 0, i64 0, i64 0, i32 0, null, metadata !669, i32 0, i32 0} ; [ DW_TAG_subroutine_type ]
!669 = metadata !{metadata !56, metadata !367, metadata !391, metadata !391, metadata !194}
!670 = metadata !{i32 786478, i32 0, metadata !289, metadata !"compare", metadata !"compare", metadata !"_ZNKSs7compareEmmPKcm", metadata !120, i32 2292, metadata !671, i1 false, i1 false, i32 0, i32 0, null, i32 256, i1 false, null, null, i32 0, metadata !84, i32 2292} ; [ DW_TAG_subprogram ]
!671 = metadata !{i32 786453, i32 0, metadata !"", i32 0, i32 0, i64 0, i64 0, i64 0, i32 0, null, metadata !672, i32 0, i32 0} ; [ DW_TAG_subroutine_type ]
!672 = metadata !{metadata !56, metadata !367, metadata !391, metadata !391, metadata !194, metadata !391}
!673 = metadata !{metadata !674, metadata !675, metadata !728}
!674 = metadata !{i32 786479, null, metadata !"_CharT", metadata !155, null, i32 0, i32 0} ; [ DW_TAG_template_type_parameter ]
!675 = metadata !{i32 786479, null, metadata !"_Traits", metadata !676, null, i32 0, i32 0} ; [ DW_TAG_template_type_parameter ]
!676 = metadata !{i32 786434, metadata !677, metadata !"char_traits<char>", metadata !678, i32 234, i64 8, i64 8, i32 0, i32 0, null, metadata !679, i32 0, null, metadata !727} ; [ DW_TAG_class_type ]
!677 = metadata !{i32 786489, null, metadata !"std", metadata !678, i32 210} ; [ DW_TAG_namespace ]
!678 = metadata !{i32 786473, metadata !"/Xilinx/Vivado_HLS/2014.1/lnx64/tools/gcc/lib/gcc/x86_64-unknown-linux-gnu/4.6.3/../../../../include/c++/4.6.3/bits/char_traits.h", metadata !"/D/xilinx_workspace", null} ; [ DW_TAG_file_type ]
!679 = metadata !{metadata !680, metadata !687, metadata !690, metadata !691, metadata !695, metadata !698, metadata !701, metadata !705, metadata !706, metadata !709, metadata !715, metadata !718, metadata !721, metadata !724}
!680 = metadata !{i32 786478, i32 0, metadata !676, metadata !"assign", metadata !"assign", metadata !"_ZNSt11char_traitsIcE6assignERcRKc", metadata !678, i32 243, metadata !681, i1 false, i1 false, i32 0, i32 0, null, i32 256, i1 false, null, null, i32 0, metadata !84, i32 243} ; [ DW_TAG_subprogram ]
!681 = metadata !{i32 786453, i32 0, metadata !"", i32 0, i32 0, i64 0, i64 0, i64 0, i32 0, null, metadata !682, i32 0, i32 0} ; [ DW_TAG_subroutine_type ]
!682 = metadata !{null, metadata !683, metadata !685}
!683 = metadata !{i32 786448, null, null, null, i32 0, i64 0, i64 0, i64 0, i32 0, metadata !684} ; [ DW_TAG_reference_type ]
!684 = metadata !{i32 786454, metadata !676, metadata !"char_type", metadata !678, i32 236, i64 0, i64 0, i64 0, i32 0, metadata !155} ; [ DW_TAG_typedef ]
!685 = metadata !{i32 786448, null, null, null, i32 0, i64 0, i64 0, i64 0, i32 0, metadata !686} ; [ DW_TAG_reference_type ]
!686 = metadata !{i32 786470, null, metadata !"", null, i32 0, i64 0, i64 0, i64 0, i32 0, metadata !684} ; [ DW_TAG_const_type ]
!687 = metadata !{i32 786478, i32 0, metadata !676, metadata !"eq", metadata !"eq", metadata !"_ZNSt11char_traitsIcE2eqERKcS2_", metadata !678, i32 247, metadata !688, i1 false, i1 false, i32 0, i32 0, null, i32 256, i1 false, null, null, i32 0, metadata !84, i32 247} ; [ DW_TAG_subprogram ]
!688 = metadata !{i32 786453, i32 0, metadata !"", i32 0, i32 0, i64 0, i64 0, i64 0, i32 0, null, metadata !689, i32 0, i32 0} ; [ DW_TAG_subroutine_type ]
!689 = metadata !{metadata !219, metadata !685, metadata !685}
!690 = metadata !{i32 786478, i32 0, metadata !676, metadata !"lt", metadata !"lt", metadata !"_ZNSt11char_traitsIcE2ltERKcS2_", metadata !678, i32 251, metadata !688, i1 false, i1 false, i32 0, i32 0, null, i32 256, i1 false, null, null, i32 0, metadata !84, i32 251} ; [ DW_TAG_subprogram ]
!691 = metadata !{i32 786478, i32 0, metadata !676, metadata !"compare", metadata !"compare", metadata !"_ZNSt11char_traitsIcE7compareEPKcS2_m", metadata !678, i32 255, metadata !692, i1 false, i1 false, i32 0, i32 0, null, i32 256, i1 false, null, null, i32 0, metadata !84, i32 255} ; [ DW_TAG_subprogram ]
!692 = metadata !{i32 786453, i32 0, metadata !"", i32 0, i32 0, i64 0, i64 0, i64 0, i32 0, null, metadata !693, i32 0, i32 0} ; [ DW_TAG_subroutine_type ]
!693 = metadata !{metadata !56, metadata !694, metadata !694, metadata !119}
!694 = metadata !{i32 786447, null, metadata !"", null, i32 0, i64 64, i64 64, i64 0, i32 0, metadata !686} ; [ DW_TAG_pointer_type ]
!695 = metadata !{i32 786478, i32 0, metadata !676, metadata !"length", metadata !"length", metadata !"_ZNSt11char_traitsIcE6lengthEPKc", metadata !678, i32 259, metadata !696, i1 false, i1 false, i32 0, i32 0, null, i32 256, i1 false, null, null, i32 0, metadata !84, i32 259} ; [ DW_TAG_subprogram ]
!696 = metadata !{i32 786453, i32 0, metadata !"", i32 0, i32 0, i64 0, i64 0, i64 0, i32 0, null, metadata !697, i32 0, i32 0} ; [ DW_TAG_subroutine_type ]
!697 = metadata !{metadata !119, metadata !694}
!698 = metadata !{i32 786478, i32 0, metadata !676, metadata !"find", metadata !"find", metadata !"_ZNSt11char_traitsIcE4findEPKcmRS1_", metadata !678, i32 263, metadata !699, i1 false, i1 false, i32 0, i32 0, null, i32 256, i1 false, null, null, i32 0, metadata !84, i32 263} ; [ DW_TAG_subprogram ]
!699 = metadata !{i32 786453, i32 0, metadata !"", i32 0, i32 0, i64 0, i64 0, i64 0, i32 0, null, metadata !700, i32 0, i32 0} ; [ DW_TAG_subroutine_type ]
!700 = metadata !{metadata !694, metadata !694, metadata !119, metadata !685}
!701 = metadata !{i32 786478, i32 0, metadata !676, metadata !"move", metadata !"move", metadata !"_ZNSt11char_traitsIcE4moveEPcPKcm", metadata !678, i32 267, metadata !702, i1 false, i1 false, i32 0, i32 0, null, i32 256, i1 false, null, null, i32 0, metadata !84, i32 267} ; [ DW_TAG_subprogram ]
!702 = metadata !{i32 786453, i32 0, metadata !"", i32 0, i32 0, i64 0, i64 0, i64 0, i32 0, null, metadata !703, i32 0, i32 0} ; [ DW_TAG_subroutine_type ]
!703 = metadata !{metadata !704, metadata !704, metadata !694, metadata !119}
!704 = metadata !{i32 786447, null, metadata !"", null, i32 0, i64 64, i64 64, i64 0, i32 0, metadata !684} ; [ DW_TAG_pointer_type ]
!705 = metadata !{i32 786478, i32 0, metadata !676, metadata !"copy", metadata !"copy", metadata !"_ZNSt11char_traitsIcE4copyEPcPKcm", metadata !678, i32 271, metadata !702, i1 false, i1 false, i32 0, i32 0, null, i32 256, i1 false, null, null, i32 0, metadata !84, i32 271} ; [ DW_TAG_subprogram ]
!706 = metadata !{i32 786478, i32 0, metadata !676, metadata !"assign", metadata !"assign", metadata !"_ZNSt11char_traitsIcE6assignEPcmc", metadata !678, i32 275, metadata !707, i1 false, i1 false, i32 0, i32 0, null, i32 256, i1 false, null, null, i32 0, metadata !84, i32 275} ; [ DW_TAG_subprogram ]
!707 = metadata !{i32 786453, i32 0, metadata !"", i32 0, i32 0, i64 0, i64 0, i64 0, i32 0, null, metadata !708, i32 0, i32 0} ; [ DW_TAG_subroutine_type ]
!708 = metadata !{metadata !704, metadata !704, metadata !119, metadata !684}
!709 = metadata !{i32 786478, i32 0, metadata !676, metadata !"to_char_type", metadata !"to_char_type", metadata !"_ZNSt11char_traitsIcE12to_char_typeERKi", metadata !678, i32 279, metadata !710, i1 false, i1 false, i32 0, i32 0, null, i32 256, i1 false, null, null, i32 0, metadata !84, i32 279} ; [ DW_TAG_subprogram ]
!710 = metadata !{i32 786453, i32 0, metadata !"", i32 0, i32 0, i64 0, i64 0, i64 0, i32 0, null, metadata !711, i32 0, i32 0} ; [ DW_TAG_subroutine_type ]
!711 = metadata !{metadata !684, metadata !712}
!712 = metadata !{i32 786448, null, null, null, i32 0, i64 0, i64 0, i64 0, i32 0, metadata !713} ; [ DW_TAG_reference_type ]
!713 = metadata !{i32 786470, null, metadata !"", null, i32 0, i64 0, i64 0, i64 0, i32 0, metadata !714} ; [ DW_TAG_const_type ]
!714 = metadata !{i32 786454, metadata !676, metadata !"int_type", metadata !678, i32 237, i64 0, i64 0, i64 0, i32 0, metadata !56} ; [ DW_TAG_typedef ]
!715 = metadata !{i32 786478, i32 0, metadata !676, metadata !"to_int_type", metadata !"to_int_type", metadata !"_ZNSt11char_traitsIcE11to_int_typeERKc", metadata !678, i32 285, metadata !716, i1 false, i1 false, i32 0, i32 0, null, i32 256, i1 false, null, null, i32 0, metadata !84, i32 285} ; [ DW_TAG_subprogram ]
!716 = metadata !{i32 786453, i32 0, metadata !"", i32 0, i32 0, i64 0, i64 0, i64 0, i32 0, null, metadata !717, i32 0, i32 0} ; [ DW_TAG_subroutine_type ]
!717 = metadata !{metadata !714, metadata !685}
!718 = metadata !{i32 786478, i32 0, metadata !676, metadata !"eq_int_type", metadata !"eq_int_type", metadata !"_ZNSt11char_traitsIcE11eq_int_typeERKiS2_", metadata !678, i32 289, metadata !719, i1 false, i1 false, i32 0, i32 0, null, i32 256, i1 false, null, null, i32 0, metadata !84, i32 289} ; [ DW_TAG_subprogram ]
!719 = metadata !{i32 786453, i32 0, metadata !"", i32 0, i32 0, i64 0, i64 0, i64 0, i32 0, null, metadata !720, i32 0, i32 0} ; [ DW_TAG_subroutine_type ]
!720 = metadata !{metadata !219, metadata !712, metadata !712}
!721 = metadata !{i32 786478, i32 0, metadata !676, metadata !"eof", metadata !"eof", metadata !"_ZNSt11char_traitsIcE3eofEv", metadata !678, i32 293, metadata !722, i1 false, i1 false, i32 0, i32 0, null, i32 256, i1 false, null, null, i32 0, metadata !84, i32 293} ; [ DW_TAG_subprogram ]
!722 = metadata !{i32 786453, i32 0, metadata !"", i32 0, i32 0, i64 0, i64 0, i64 0, i32 0, null, metadata !723, i32 0, i32 0} ; [ DW_TAG_subroutine_type ]
!723 = metadata !{metadata !714}
!724 = metadata !{i32 786478, i32 0, metadata !676, metadata !"not_eof", metadata !"not_eof", metadata !"_ZNSt11char_traitsIcE7not_eofERKi", metadata !678, i32 297, metadata !725, i1 false, i1 false, i32 0, i32 0, null, i32 256, i1 false, null, null, i32 0, metadata !84, i32 297} ; [ DW_TAG_subprogram ]
!725 = metadata !{i32 786453, i32 0, metadata !"", i32 0, i32 0, i64 0, i64 0, i64 0, i32 0, null, metadata !726, i32 0, i32 0} ; [ DW_TAG_subroutine_type ]
!726 = metadata !{metadata !714, metadata !712}
!727 = metadata !{metadata !674}
!728 = metadata !{i32 786479, null, metadata !"_Alloc", metadata !296, null, i32 0, i32 0} ; [ DW_TAG_template_type_parameter ]
!729 = metadata !{i32 786447, i32 0, metadata !"", i32 0, i32 0, i64 64, i64 64, i64 0, i32 64, metadata !269} ; [ DW_TAG_pointer_type ]
!730 = metadata !{i32 786478, i32 0, metadata !94, metadata !"operator==", metadata !"operator==", metadata !"_ZNKSt6localeeqERKS_", metadata !96, i32 226, metadata !731, i1 false, i1 false, i32 0, i32 0, null, i32 256, i1 false, null, null, i32 0, metadata !84, i32 226} ; [ DW_TAG_subprogram ]
!731 = metadata !{i32 786453, i32 0, metadata !"", i32 0, i32 0, i64 0, i64 0, i64 0, i32 0, null, metadata !732, i32 0, i32 0} ; [ DW_TAG_subroutine_type ]
!732 = metadata !{metadata !219, metadata !729, metadata !268}
!733 = metadata !{i32 786478, i32 0, metadata !94, metadata !"operator!=", metadata !"operator!=", metadata !"_ZNKSt6localeneERKS_", metadata !96, i32 235, metadata !731, i1 false, i1 false, i32 0, i32 0, null, i32 256, i1 false, null, null, i32 0, metadata !84, i32 235} ; [ DW_TAG_subprogram ]
!734 = metadata !{i32 786478, i32 0, metadata !94, metadata !"global", metadata !"global", metadata !"_ZNSt6locale6globalERKS_", metadata !96, i32 270, metadata !735, i1 false, i1 false, i32 0, i32 0, null, i32 256, i1 false, null, null, i32 0, metadata !84, i32 270} ; [ DW_TAG_subprogram ]
!735 = metadata !{i32 786453, i32 0, metadata !"", i32 0, i32 0, i64 0, i64 0, i64 0, i32 0, null, metadata !736, i32 0, i32 0} ; [ DW_TAG_subroutine_type ]
!736 = metadata !{metadata !94, metadata !268}
!737 = metadata !{i32 786478, i32 0, metadata !94, metadata !"classic", metadata !"classic", metadata !"_ZNSt6locale7classicEv", metadata !96, i32 276, metadata !738, i1 false, i1 false, i32 0, i32 0, null, i32 256, i1 false, null, null, i32 0, metadata !84, i32 276} ; [ DW_TAG_subprogram ]
!738 = metadata !{i32 786453, i32 0, metadata !"", i32 0, i32 0, i64 0, i64 0, i64 0, i32 0, null, metadata !739, i32 0, i32 0} ; [ DW_TAG_subroutine_type ]
!739 = metadata !{metadata !268}
!740 = metadata !{i32 786478, i32 0, metadata !94, metadata !"locale", metadata !"locale", metadata !"", metadata !96, i32 311, metadata !741, i1 false, i1 false, i32 0, i32 0, null, i32 385, i1 false, null, null, i32 0, metadata !84, i32 311} ; [ DW_TAG_subprogram ]
!741 = metadata !{i32 786453, i32 0, metadata !"", i32 0, i32 0, i64 0, i64 0, i64 0, i32 0, null, metadata !742, i32 0, i32 0} ; [ DW_TAG_subroutine_type ]
!742 = metadata !{null, metadata !264, metadata !99}
!743 = metadata !{i32 786478, i32 0, metadata !94, metadata !"_S_initialize", metadata !"_S_initialize", metadata !"_ZNSt6locale13_S_initializeEv", metadata !96, i32 314, metadata !113, i1 false, i1 false, i32 0, i32 0, null, i32 257, i1 false, null, null, i32 0, metadata !84, i32 314} ; [ DW_TAG_subprogram ]
!744 = metadata !{i32 786478, i32 0, metadata !94, metadata !"_S_initialize_once", metadata !"_S_initialize_once", metadata !"_ZNSt6locale18_S_initialize_onceEv", metadata !96, i32 317, metadata !113, i1 false, i1 false, i32 0, i32 0, null, i32 257, i1 false, null, null, i32 0, metadata !84, i32 317} ; [ DW_TAG_subprogram ]
!745 = metadata !{i32 786478, i32 0, metadata !94, metadata !"_S_normalize_category", metadata !"_S_normalize_category", metadata !"_ZNSt6locale21_S_normalize_categoryEi", metadata !96, i32 320, metadata !746, i1 false, i1 false, i32 0, i32 0, null, i32 257, i1 false, null, null, i32 0, metadata !84, i32 320} ; [ DW_TAG_subprogram ]
!746 = metadata !{i32 786453, i32 0, metadata !"", i32 0, i32 0, i64 0, i64 0, i64 0, i32 0, null, metadata !747, i32 0, i32 0} ; [ DW_TAG_subroutine_type ]
!747 = metadata !{metadata !224, metadata !224}
!748 = metadata !{i32 786478, i32 0, metadata !94, metadata !"_M_coalesce", metadata !"_M_coalesce", metadata !"_ZNSt6locale11_M_coalesceERKS_S1_i", metadata !96, i32 323, metadata !277, i1 false, i1 false, i32 0, i32 0, null, i32 257, i1 false, null, null, i32 0, metadata !84, i32 323} ; [ DW_TAG_subprogram ]
!749 = metadata !{i32 786474, metadata !94, null, metadata !96, i32 0, i64 0, i64 0, i64 0, i32 0, metadata !100} ; [ DW_TAG_friend ]
!750 = metadata !{i32 786474, metadata !94, null, metadata !96, i32 0, i64 0, i64 0, i64 0, i32 0, metadata !108} ; [ DW_TAG_friend ]
!751 = metadata !{i32 786478, i32 0, metadata !49, metadata !"register_callback", metadata !"register_callback", metadata !"_ZNSt8ios_base17register_callbackEPFvNS_5eventERS_iEi", metadata !5, i32 450, metadata !752, i1 false, i1 false, i32 0, i32 0, null, i32 256, i1 false, null, null, i32 0, metadata !84, i32 450} ; [ DW_TAG_subprogram ]
!752 = metadata !{i32 786453, i32 0, metadata !"", i32 0, i32 0, i64 0, i64 0, i64 0, i32 0, null, metadata !753, i32 0, i32 0} ; [ DW_TAG_subroutine_type ]
!753 = metadata !{null, metadata !754, metadata !755, metadata !56}
!754 = metadata !{i32 786447, i32 0, metadata !"", i32 0, i32 0, i64 64, i64 64, i64 0, i32 64, metadata !49} ; [ DW_TAG_pointer_type ]
!755 = metadata !{i32 786454, metadata !49, metadata !"event_callback", metadata !5, i32 437, i64 0, i64 0, i64 0, i32 0, metadata !756} ; [ DW_TAG_typedef ]
!756 = metadata !{i32 786447, null, metadata !"", null, i32 0, i64 64, i64 64, i64 0, i32 0, metadata !757} ; [ DW_TAG_pointer_type ]
!757 = metadata !{i32 786453, i32 0, metadata !"", i32 0, i32 0, i64 0, i64 0, i64 0, i32 0, null, metadata !758, i32 0, i32 0} ; [ DW_TAG_subroutine_type ]
!758 = metadata !{null, metadata !48, metadata !759, metadata !56}
!759 = metadata !{i32 786448, null, null, null, i32 0, i64 0, i64 0, i64 0, i32 0, metadata !49} ; [ DW_TAG_reference_type ]
!760 = metadata !{i32 786478, i32 0, metadata !49, metadata !"_M_call_callbacks", metadata !"_M_call_callbacks", metadata !"_ZNSt8ios_base17_M_call_callbacksENS_5eventE", metadata !5, i32 494, metadata !761, i1 false, i1 false, i32 0, i32 0, null, i32 258, i1 false, null, null, i32 0, metadata !84, i32 494} ; [ DW_TAG_subprogram ]
!761 = metadata !{i32 786453, i32 0, metadata !"", i32 0, i32 0, i64 0, i64 0, i64 0, i32 0, null, metadata !762, i32 0, i32 0} ; [ DW_TAG_subroutine_type ]
!762 = metadata !{null, metadata !754, metadata !48}
!763 = metadata !{i32 786478, i32 0, metadata !49, metadata !"_M_dispose_callbacks", metadata !"_M_dispose_callbacks", metadata !"_ZNSt8ios_base20_M_dispose_callbacksEv", metadata !5, i32 497, metadata !764, i1 false, i1 false, i32 0, i32 0, null, i32 258, i1 false, null, null, i32 0, metadata !84, i32 497} ; [ DW_TAG_subprogram ]
!764 = metadata !{i32 786453, i32 0, metadata !"", i32 0, i32 0, i64 0, i64 0, i64 0, i32 0, null, metadata !765, i32 0, i32 0} ; [ DW_TAG_subroutine_type ]
!765 = metadata !{null, metadata !754}
!766 = metadata !{i32 786478, i32 0, metadata !49, metadata !"_M_grow_words", metadata !"_M_grow_words", metadata !"_ZNSt8ios_base13_M_grow_wordsEib", metadata !5, i32 520, metadata !767, i1 false, i1 false, i32 0, i32 0, null, i32 258, i1 false, null, null, i32 0, metadata !84, i32 520} ; [ DW_TAG_subprogram ]
!767 = metadata !{i32 786453, i32 0, metadata !"", i32 0, i32 0, i64 0, i64 0, i64 0, i32 0, null, metadata !768, i32 0, i32 0} ; [ DW_TAG_subroutine_type ]
!768 = metadata !{metadata !769, metadata !754, metadata !56, metadata !219}
!769 = metadata !{i32 786448, null, null, null, i32 0, i64 0, i64 0, i64 0, i32 0, metadata !75} ; [ DW_TAG_reference_type ]
!770 = metadata !{i32 786478, i32 0, metadata !49, metadata !"_M_init", metadata !"_M_init", metadata !"_ZNSt8ios_base7_M_initEv", metadata !5, i32 526, metadata !764, i1 false, i1 false, i32 0, i32 0, null, i32 258, i1 false, null, null, i32 0, metadata !84, i32 526} ; [ DW_TAG_subprogram ]
!771 = metadata !{i32 786478, i32 0, metadata !49, metadata !"flags", metadata !"flags", metadata !"_ZNKSt8ios_base5flagsEv", metadata !5, i32 552, metadata !772, i1 false, i1 false, i32 0, i32 0, null, i32 256, i1 false, null, null, i32 0, metadata !84, i32 552} ; [ DW_TAG_subprogram ]
!772 = metadata !{i32 786453, i32 0, metadata !"", i32 0, i32 0, i64 0, i64 0, i64 0, i32 0, null, metadata !773, i32 0, i32 0} ; [ DW_TAG_subroutine_type ]
!773 = metadata !{metadata !67, metadata !774}
!774 = metadata !{i32 786447, i32 0, metadata !"", i32 0, i32 0, i64 64, i64 64, i64 0, i32 64, metadata !775} ; [ DW_TAG_pointer_type ]
!775 = metadata !{i32 786470, null, metadata !"", null, i32 0, i64 0, i64 0, i64 0, i32 0, metadata !49} ; [ DW_TAG_const_type ]
!776 = metadata !{i32 786478, i32 0, metadata !49, metadata !"flags", metadata !"flags", metadata !"_ZNSt8ios_base5flagsESt13_Ios_Fmtflags", metadata !5, i32 563, metadata !777, i1 false, i1 false, i32 0, i32 0, null, i32 256, i1 false, null, null, i32 0, metadata !84, i32 563} ; [ DW_TAG_subprogram ]
!777 = metadata !{i32 786453, i32 0, metadata !"", i32 0, i32 0, i64 0, i64 0, i64 0, i32 0, null, metadata !778, i32 0, i32 0} ; [ DW_TAG_subroutine_type ]
!778 = metadata !{metadata !67, metadata !754, metadata !67}
!779 = metadata !{i32 786478, i32 0, metadata !49, metadata !"setf", metadata !"setf", metadata !"_ZNSt8ios_base4setfESt13_Ios_Fmtflags", metadata !5, i32 579, metadata !777, i1 false, i1 false, i32 0, i32 0, null, i32 256, i1 false, null, null, i32 0, metadata !84, i32 579} ; [ DW_TAG_subprogram ]
!780 = metadata !{i32 786478, i32 0, metadata !49, metadata !"setf", metadata !"setf", metadata !"_ZNSt8ios_base4setfESt13_Ios_FmtflagsS0_", metadata !5, i32 596, metadata !781, i1 false, i1 false, i32 0, i32 0, null, i32 256, i1 false, null, null, i32 0, metadata !84, i32 596} ; [ DW_TAG_subprogram ]
!781 = metadata !{i32 786453, i32 0, metadata !"", i32 0, i32 0, i64 0, i64 0, i64 0, i32 0, null, metadata !782, i32 0, i32 0} ; [ DW_TAG_subroutine_type ]
!782 = metadata !{metadata !67, metadata !754, metadata !67, metadata !67}
!783 = metadata !{i32 786478, i32 0, metadata !49, metadata !"unsetf", metadata !"unsetf", metadata !"_ZNSt8ios_base6unsetfESt13_Ios_Fmtflags", metadata !5, i32 611, metadata !784, i1 false, i1 false, i32 0, i32 0, null, i32 256, i1 false, null, null, i32 0, metadata !84, i32 611} ; [ DW_TAG_subprogram ]
!784 = metadata !{i32 786453, i32 0, metadata !"", i32 0, i32 0, i64 0, i64 0, i64 0, i32 0, null, metadata !785, i32 0, i32 0} ; [ DW_TAG_subroutine_type ]
!785 = metadata !{null, metadata !754, metadata !67}
!786 = metadata !{i32 786478, i32 0, metadata !49, metadata !"precision", metadata !"precision", metadata !"_ZNKSt8ios_base9precisionEv", metadata !5, i32 622, metadata !787, i1 false, i1 false, i32 0, i32 0, null, i32 256, i1 false, null, null, i32 0, metadata !84, i32 622} ; [ DW_TAG_subprogram ]
!787 = metadata !{i32 786453, i32 0, metadata !"", i32 0, i32 0, i64 0, i64 0, i64 0, i32 0, null, metadata !788, i32 0, i32 0} ; [ DW_TAG_subroutine_type ]
!788 = metadata !{metadata !58, metadata !774}
!789 = metadata !{i32 786478, i32 0, metadata !49, metadata !"precision", metadata !"precision", metadata !"_ZNSt8ios_base9precisionEl", metadata !5, i32 631, metadata !790, i1 false, i1 false, i32 0, i32 0, null, i32 256, i1 false, null, null, i32 0, metadata !84, i32 631} ; [ DW_TAG_subprogram ]
!790 = metadata !{i32 786453, i32 0, metadata !"", i32 0, i32 0, i64 0, i64 0, i64 0, i32 0, null, metadata !791, i32 0, i32 0} ; [ DW_TAG_subroutine_type ]
!791 = metadata !{metadata !58, metadata !754, metadata !58}
!792 = metadata !{i32 786478, i32 0, metadata !49, metadata !"width", metadata !"width", metadata !"_ZNKSt8ios_base5widthEv", metadata !5, i32 645, metadata !787, i1 false, i1 false, i32 0, i32 0, null, i32 256, i1 false, null, null, i32 0, metadata !84, i32 645} ; [ DW_TAG_subprogram ]
!793 = metadata !{i32 786478, i32 0, metadata !49, metadata !"width", metadata !"width", metadata !"_ZNSt8ios_base5widthEl", metadata !5, i32 654, metadata !790, i1 false, i1 false, i32 0, i32 0, null, i32 256, i1 false, null, null, i32 0, metadata !84, i32 654} ; [ DW_TAG_subprogram ]
!794 = metadata !{i32 786478, i32 0, metadata !49, metadata !"sync_with_stdio", metadata !"sync_with_stdio", metadata !"_ZNSt8ios_base15sync_with_stdioEb", metadata !5, i32 673, metadata !795, i1 false, i1 false, i32 0, i32 0, null, i32 256, i1 false, null, null, i32 0, metadata !84, i32 673} ; [ DW_TAG_subprogram ]
!795 = metadata !{i32 786453, i32 0, metadata !"", i32 0, i32 0, i64 0, i64 0, i64 0, i32 0, null, metadata !796, i32 0, i32 0} ; [ DW_TAG_subroutine_type ]
!796 = metadata !{metadata !219, metadata !219}
!797 = metadata !{i32 786478, i32 0, metadata !49, metadata !"imbue", metadata !"imbue", metadata !"_ZNSt8ios_base5imbueERKSt6locale", metadata !5, i32 685, metadata !798, i1 false, i1 false, i32 0, i32 0, null, i32 256, i1 false, null, null, i32 0, metadata !84, i32 685} ; [ DW_TAG_subprogram ]
!798 = metadata !{i32 786453, i32 0, metadata !"", i32 0, i32 0, i64 0, i64 0, i64 0, i32 0, null, metadata !799, i32 0, i32 0} ; [ DW_TAG_subroutine_type ]
!799 = metadata !{metadata !94, metadata !754, metadata !268}
!800 = metadata !{i32 786478, i32 0, metadata !49, metadata !"getloc", metadata !"getloc", metadata !"_ZNKSt8ios_base6getlocEv", metadata !5, i32 696, metadata !801, i1 false, i1 false, i32 0, i32 0, null, i32 256, i1 false, null, null, i32 0, metadata !84, i32 696} ; [ DW_TAG_subprogram ]
!801 = metadata !{i32 786453, i32 0, metadata !"", i32 0, i32 0, i64 0, i64 0, i64 0, i32 0, null, metadata !802, i32 0, i32 0} ; [ DW_TAG_subroutine_type ]
!802 = metadata !{metadata !94, metadata !774}
!803 = metadata !{i32 786478, i32 0, metadata !49, metadata !"_M_getloc", metadata !"_M_getloc", metadata !"_ZNKSt8ios_base9_M_getlocEv", metadata !5, i32 707, metadata !804, i1 false, i1 false, i32 0, i32 0, null, i32 256, i1 false, null, null, i32 0, metadata !84, i32 707} ; [ DW_TAG_subprogram ]
!804 = metadata !{i32 786453, i32 0, metadata !"", i32 0, i32 0, i64 0, i64 0, i64 0, i32 0, null, metadata !805, i32 0, i32 0} ; [ DW_TAG_subroutine_type ]
!805 = metadata !{metadata !268, metadata !774}
!806 = metadata !{i32 786478, i32 0, metadata !49, metadata !"xalloc", metadata !"xalloc", metadata !"_ZNSt8ios_base6xallocEv", metadata !5, i32 726, metadata !54, i1 false, i1 false, i32 0, i32 0, null, i32 256, i1 false, null, null, i32 0, metadata !84, i32 726} ; [ DW_TAG_subprogram ]
!807 = metadata !{i32 786478, i32 0, metadata !49, metadata !"iword", metadata !"iword", metadata !"_ZNSt8ios_base5iwordEi", metadata !5, i32 742, metadata !808, i1 false, i1 false, i32 0, i32 0, null, i32 256, i1 false, null, null, i32 0, metadata !84, i32 742} ; [ DW_TAG_subprogram ]
!808 = metadata !{i32 786453, i32 0, metadata !"", i32 0, i32 0, i64 0, i64 0, i64 0, i32 0, null, metadata !809, i32 0, i32 0} ; [ DW_TAG_subroutine_type ]
!809 = metadata !{metadata !810, metadata !754, metadata !56}
!810 = metadata !{i32 786448, null, null, null, i32 0, i64 0, i64 0, i64 0, i32 0, metadata !64} ; [ DW_TAG_reference_type ]
!811 = metadata !{i32 786478, i32 0, metadata !49, metadata !"pword", metadata !"pword", metadata !"_ZNSt8ios_base5pwordEi", metadata !5, i32 763, metadata !812, i1 false, i1 false, i32 0, i32 0, null, i32 256, i1 false, null, null, i32 0, metadata !84, i32 763} ; [ DW_TAG_subprogram ]
!812 = metadata !{i32 786453, i32 0, metadata !"", i32 0, i32 0, i64 0, i64 0, i64 0, i32 0, null, metadata !813, i32 0, i32 0} ; [ DW_TAG_subroutine_type ]
!813 = metadata !{metadata !814, metadata !754, metadata !56}
!814 = metadata !{i32 786448, null, null, null, i32 0, i64 0, i64 0, i64 0, i32 0, metadata !78} ; [ DW_TAG_reference_type ]
!815 = metadata !{i32 786478, i32 0, metadata !49, metadata !"~ios_base", metadata !"~ios_base", metadata !"", metadata !5, i32 779, metadata !764, i1 false, i1 false, i32 1, i32 0, metadata !49, i32 256, i1 false, null, null, i32 0, metadata !84, i32 779} ; [ DW_TAG_subprogram ]
!816 = metadata !{i32 786478, i32 0, metadata !49, metadata !"ios_base", metadata !"ios_base", metadata !"", metadata !5, i32 782, metadata !764, i1 false, i1 false, i32 0, i32 0, null, i32 258, i1 false, null, null, i32 0, metadata !84, i32 782} ; [ DW_TAG_subprogram ]
!817 = metadata !{i32 786478, i32 0, metadata !49, metadata !"ios_base", metadata !"ios_base", metadata !"", metadata !5, i32 787, metadata !818, i1 false, i1 false, i32 0, i32 0, null, i32 257, i1 false, null, null, i32 0, metadata !84, i32 787} ; [ DW_TAG_subprogram ]
!818 = metadata !{i32 786453, i32 0, metadata !"", i32 0, i32 0, i64 0, i64 0, i64 0, i32 0, null, metadata !819, i32 0, i32 0} ; [ DW_TAG_subroutine_type ]
!819 = metadata !{null, metadata !754, metadata !820}
!820 = metadata !{i32 786448, null, null, null, i32 0, i64 0, i64 0, i64 0, i32 0, metadata !775} ; [ DW_TAG_reference_type ]
!821 = metadata !{i32 786478, i32 0, metadata !49, metadata !"operator=", metadata !"operator=", metadata !"_ZNSt8ios_baseaSERKS_", metadata !5, i32 790, metadata !822, i1 false, i1 false, i32 0, i32 0, null, i32 257, i1 false, null, null, i32 0, metadata !84, i32 790} ; [ DW_TAG_subprogram ]
!822 = metadata !{i32 786453, i32 0, metadata !"", i32 0, i32 0, i64 0, i64 0, i64 0, i32 0, null, metadata !823, i32 0, i32 0} ; [ DW_TAG_subroutine_type ]
!823 = metadata !{metadata !759, metadata !754, metadata !820}
!824 = metadata !{metadata !825, metadata !826, metadata !827}
!825 = metadata !{i32 786472, metadata !"erase_event", i64 0} ; [ DW_TAG_enumerator ]
!826 = metadata !{i32 786472, metadata !"imbue_event", i64 1} ; [ DW_TAG_enumerator ]
!827 = metadata !{i32 786472, metadata !"copyfmt_event", i64 2} ; [ DW_TAG_enumerator ]
!828 = metadata !{i32 786436, null, metadata !"BaseMode", metadata !829, i32 557, i64 5, i64 8, i32 0, i32 0, null, metadata !830, i32 0, i32 0} ; [ DW_TAG_enumeration_type ]
!829 = metadata !{i32 786473, metadata !"/Xilinx/Vivado_HLS/2014.1/common/technology/autopilot/ap_int_syn.h", metadata !"/D/xilinx_workspace", null} ; [ DW_TAG_file_type ]
!830 = metadata !{metadata !831, metadata !832, metadata !833, metadata !834}
!831 = metadata !{i32 786472, metadata !"SC_BIN", i64 2} ; [ DW_TAG_enumerator ]
!832 = metadata !{i32 786472, metadata !"SC_OCT", i64 8} ; [ DW_TAG_enumerator ]
!833 = metadata !{i32 786472, metadata !"SC_DEC", i64 10} ; [ DW_TAG_enumerator ]
!834 = metadata !{i32 786472, metadata !"SC_HEX", i64 16} ; [ DW_TAG_enumerator ]
!835 = metadata !{metadata !836}
!836 = metadata !{i32 0}
!837 = metadata !{metadata !838}
!838 = metadata !{metadata !839, metadata !1152, metadata !1153, metadata !1154, metadata !1155, metadata !1156, metadata !1459, metadata !1460, metadata !1461, metadata !1462, metadata !1463, metadata !1464, metadata !1465, metadata !1466, metadata !1467, metadata !1473, metadata !1480, metadata !1487, metadata !1491, metadata !1495, metadata !1499, metadata !1503, metadata !1507}
!839 = metadata !{i32 786478, i32 0, metadata !840, metadata !"pl_axi_dma_controller", metadata !"pl_axi_dma_controller", metadata !"_Z21pl_axi_dma_controllerPVijbiibPVbS0_S0_S0_PV7ap_uintILi1EES6_S6_", metadata !840, i32 4, metadata !841, i1 false, i1 true, i32 0, i32 0, null, i32 256, i1 false, void (i32*, i32, i1, i32, i32, i1, i1*, i32*, i32*, i32*, %struct.ap_uint.3*, %struct.ap_uint.3*, %struct.ap_uint.3*)* @pl_axi_dma_controller, null, null, metadata !84, i32 7} ; [ DW_TAG_subprogram ]
!840 = metadata !{i32 786473, metadata !"PL_AXI_DMA_Controller/source/PL_AXI_DMA_Controller.cpp", metadata !"/D/xilinx_workspace", null} ; [ DW_TAG_file_type ]
!841 = metadata !{i32 786453, i32 0, metadata !"", i32 0, i32 0, i64 0, i64 0, i64 0, i32 0, null, metadata !842, i32 0, i32 0} ; [ DW_TAG_subroutine_type ]
!842 = metadata !{metadata !843, metadata !844, metadata !846, metadata !848, metadata !845, metadata !845, metadata !848, metadata !849, metadata !844, metadata !844, metadata !844, metadata !850, metadata !1151, metadata !1151}
!843 = metadata !{i32 786485, null, metadata !"", null, i32 0, i64 0, i64 0, i64 0, i32 0, null} ; [ DW_TAG_volatile_type ]
!844 = metadata !{i32 786447, null, metadata !"", null, i32 0, i64 64, i64 64, i64 0, i32 0, metadata !845} ; [ DW_TAG_pointer_type ]
!845 = metadata !{i32 786485, null, metadata !"", null, i32 0, i64 0, i64 0, i64 0, i32 0, metadata !56} ; [ DW_TAG_volatile_type ]
!846 = metadata !{i32 786485, null, metadata !"", null, i32 0, i64 0, i64 0, i64 0, i32 0, metadata !847} ; [ DW_TAG_volatile_type ]
!847 = metadata !{i32 786468, null, metadata !"unsigned int", null, i32 0, i64 32, i64 32, i64 0, i32 0, i32 7} ; [ DW_TAG_base_type ]
!848 = metadata !{i32 786485, null, metadata !"", null, i32 0, i64 0, i64 0, i64 0, i32 0, metadata !219} ; [ DW_TAG_volatile_type ]
!849 = metadata !{i32 786447, null, metadata !"", null, i32 0, i64 64, i64 64, i64 0, i32 0, metadata !848} ; [ DW_TAG_pointer_type ]
!850 = metadata !{i32 786447, null, metadata !"", null, i32 0, i64 64, i64 64, i64 0, i32 0, metadata !851} ; [ DW_TAG_pointer_type ]
!851 = metadata !{i32 786485, null, metadata !"", null, i32 0, i64 0, i64 0, i64 0, i32 0, metadata !852} ; [ DW_TAG_volatile_type ]
!852 = metadata !{i32 786434, null, metadata !"ap_uint<1>", metadata !853, i32 134, i64 8, i64 8, i32 0, i32 0, null, metadata !854, i32 0, null, metadata !1150} ; [ DW_TAG_class_type ]
!853 = metadata !{i32 786473, metadata !"/Xilinx/Vivado_HLS/2014.1/common/technology/autopilot/ap_int.h", metadata !"/D/xilinx_workspace", null} ; [ DW_TAG_file_type ]
!854 = metadata !{metadata !855, metadata !1080, metadata !1084, metadata !1089, metadata !1090, metadata !1093, metadata !1096, metadata !1099, metadata !1102, metadata !1105, metadata !1108, metadata !1111, metadata !1114, metadata !1117, metadata !1120, metadata !1123, metadata !1126, metadata !1129, metadata !1132, metadata !1135, metadata !1138, metadata !1142, metadata !1143, metadata !1146, metadata !1147, metadata !1148}
!855 = metadata !{i32 786460, metadata !852, null, metadata !853, i32 0, i64 0, i64 0, i64 0, i32 0, metadata !856} ; [ DW_TAG_inheritance ]
!856 = metadata !{i32 786434, null, metadata !"ap_int_base<1, false, true>", metadata !829, i32 1302, i64 8, i64 8, i32 0, i32 0, null, metadata !857, i32 0, null, metadata !1078} ; [ DW_TAG_class_type ]
!857 = metadata !{metadata !858, metadata !871, metadata !875, metadata !882, metadata !883, metadata !886, metadata !890, metadata !894, metadata !898, metadata !901, metadata !904, metadata !907, metadata !910, metadata !913, metadata !918, metadata !923, metadata !927, metadata !931, metadata !934, metadata !937, metadata !942, metadata !945, metadata !946, metadata !947, metadata !950, metadata !951, metadata !954, metadata !957, metadata !960, metadata !963, metadata !972, metadata !975, metadata !978, metadata !981, metadata !984, metadata !987, metadata !990, metadata !993, metadata !996, metadata !997, metadata !1002, metadata !1005, metadata !1006, metadata !1007, metadata !1008, metadata !1009, metadata !1010, metadata !1013, metadata !1014, metadata !1017, metadata !1018, metadata !1019, metadata !1020, metadata !1021, metadata !1022, metadata !1025, metadata !1026, metadata !1027, metadata !1030, metadata !1031, metadata !1034, metadata !1035, metadata !1039, metadata !1043, metadata !1044, metadata !1047, metadata !1048, metadata !1052, metadata !1053, metadata !1054, metadata !1055, metadata !1058, metadata !1059, metadata !1060, metadata !1061, metadata !1062, metadata !1063, metadata !1064, metadata !1065, metadata !1066, metadata !1067, metadata !1068, metadata !1069, metadata !1072, metadata !1075}
!858 = metadata !{i32 786460, metadata !856, null, metadata !829, i32 0, i64 0, i64 0, i64 0, i32 0, metadata !859} ; [ DW_TAG_inheritance ]
!859 = metadata !{i32 786434, null, metadata !"ssdm_int<1 + 1024 * 0, false>", metadata !860, i32 3, i64 8, i64 8, i32 0, i32 0, null, metadata !861, i32 0, null, metadata !868} ; [ DW_TAG_class_type ]
!860 = metadata !{i32 786473, metadata !"/Xilinx/Vivado_HLS/2014.1/common/technology/autopilot/etc/autopilot_dt.def", metadata !"/D/xilinx_workspace", null} ; [ DW_TAG_file_type ]
!861 = metadata !{metadata !862, metadata !864}
!862 = metadata !{i32 786445, metadata !859, metadata !"V", metadata !860, i32 3, i64 1, i64 1, i64 0, i32 0, metadata !863} ; [ DW_TAG_member ]
!863 = metadata !{i32 786468, null, metadata !"uint1", null, i32 0, i64 1, i64 1, i64 0, i32 0, i32 7} ; [ DW_TAG_base_type ]
!864 = metadata !{i32 786478, i32 0, metadata !859, metadata !"ssdm_int", metadata !"ssdm_int", metadata !"", metadata !860, i32 3, metadata !865, i1 false, i1 false, i32 0, i32 0, null, i32 256, i1 false, null, null, i32 0, metadata !84, i32 3} ; [ DW_TAG_subprogram ]
!865 = metadata !{i32 786453, i32 0, metadata !"", i32 0, i32 0, i64 0, i64 0, i64 0, i32 0, null, metadata !866, i32 0, i32 0} ; [ DW_TAG_subroutine_type ]
!866 = metadata !{null, metadata !867}
!867 = metadata !{i32 786447, i32 0, metadata !"", i32 0, i32 0, i64 64, i64 64, i64 0, i32 64, metadata !859} ; [ DW_TAG_pointer_type ]
!868 = metadata !{metadata !869, metadata !870}
!869 = metadata !{i32 786480, null, metadata !"_AP_N", metadata !56, i64 1, null, i32 0, i32 0} ; [ DW_TAG_template_value_parameter ]
!870 = metadata !{i32 786480, null, metadata !"_AP_S", metadata !219, i64 0, null, i32 0, i32 0} ; [ DW_TAG_template_value_parameter ]
!871 = metadata !{i32 786478, i32 0, metadata !856, metadata !"ap_int_base", metadata !"ap_int_base", metadata !"", metadata !829, i32 1340, metadata !872, i1 false, i1 false, i32 0, i32 0, null, i32 256, i1 false, null, null, i32 0, metadata !84, i32 1340} ; [ DW_TAG_subprogram ]
!872 = metadata !{i32 786453, i32 0, metadata !"", i32 0, i32 0, i64 0, i64 0, i64 0, i32 0, null, metadata !873, i32 0, i32 0} ; [ DW_TAG_subroutine_type ]
!873 = metadata !{null, metadata !874}
!874 = metadata !{i32 786447, i32 0, metadata !"", i32 0, i32 0, i64 64, i64 64, i64 0, i32 64, metadata !856} ; [ DW_TAG_pointer_type ]
!875 = metadata !{i32 786478, i32 0, metadata !856, metadata !"ap_int_base<1, false>", metadata !"ap_int_base<1, false>", metadata !"", metadata !829, i32 1352, metadata !876, i1 false, i1 false, i32 0, i32 0, null, i32 256, i1 false, null, metadata !879, i32 0, metadata !84, i32 1352} ; [ DW_TAG_subprogram ]
!876 = metadata !{i32 786453, i32 0, metadata !"", i32 0, i32 0, i64 0, i64 0, i64 0, i32 0, null, metadata !877, i32 0, i32 0} ; [ DW_TAG_subroutine_type ]
!877 = metadata !{null, metadata !874, metadata !878}
!878 = metadata !{i32 786448, null, null, null, i32 0, i64 0, i64 0, i64 0, i32 0, metadata !856} ; [ DW_TAG_reference_type ]
!879 = metadata !{metadata !880, metadata !881}
!880 = metadata !{i32 786480, null, metadata !"_AP_W2", metadata !56, i64 1, null, i32 0, i32 0} ; [ DW_TAG_template_value_parameter ]
!881 = metadata !{i32 786480, null, metadata !"_AP_S2", metadata !219, i64 0, null, i32 0, i32 0} ; [ DW_TAG_template_value_parameter ]
!882 = metadata !{i32 786478, i32 0, metadata !856, metadata !"ap_int_base<1, false>", metadata !"ap_int_base<1, false>", metadata !"", metadata !829, i32 1355, metadata !876, i1 false, i1 false, i32 0, i32 0, null, i32 256, i1 false, null, metadata !879, i32 0, metadata !84, i32 1355} ; [ DW_TAG_subprogram ]
!883 = metadata !{i32 786478, i32 0, metadata !856, metadata !"ap_int_base", metadata !"ap_int_base", metadata !"", metadata !829, i32 1362, metadata !884, i1 false, i1 false, i32 0, i32 0, null, i32 384, i1 false, null, null, i32 0, metadata !84, i32 1362} ; [ DW_TAG_subprogram ]
!884 = metadata !{i32 786453, i32 0, metadata !"", i32 0, i32 0, i64 0, i64 0, i64 0, i32 0, null, metadata !885, i32 0, i32 0} ; [ DW_TAG_subroutine_type ]
!885 = metadata !{null, metadata !874, metadata !219}
!886 = metadata !{i32 786478, i32 0, metadata !856, metadata !"ap_int_base", metadata !"ap_int_base", metadata !"", metadata !829, i32 1363, metadata !887, i1 false, i1 false, i32 0, i32 0, null, i32 384, i1 false, null, null, i32 0, metadata !84, i32 1363} ; [ DW_TAG_subprogram ]
!887 = metadata !{i32 786453, i32 0, metadata !"", i32 0, i32 0, i64 0, i64 0, i64 0, i32 0, null, metadata !888, i32 0, i32 0} ; [ DW_TAG_subroutine_type ]
!888 = metadata !{null, metadata !874, metadata !889}
!889 = metadata !{i32 786468, null, metadata !"signed char", null, i32 0, i64 8, i64 8, i64 0, i32 0, i32 6} ; [ DW_TAG_base_type ]
!890 = metadata !{i32 786478, i32 0, metadata !856, metadata !"ap_int_base", metadata !"ap_int_base", metadata !"", metadata !829, i32 1364, metadata !891, i1 false, i1 false, i32 0, i32 0, null, i32 384, i1 false, null, null, i32 0, metadata !84, i32 1364} ; [ DW_TAG_subprogram ]
!891 = metadata !{i32 786453, i32 0, metadata !"", i32 0, i32 0, i64 0, i64 0, i64 0, i32 0, null, metadata !892, i32 0, i32 0} ; [ DW_TAG_subroutine_type ]
!892 = metadata !{null, metadata !874, metadata !893}
!893 = metadata !{i32 786468, null, metadata !"unsigned char", null, i32 0, i64 8, i64 8, i64 0, i32 0, i32 8} ; [ DW_TAG_base_type ]
!894 = metadata !{i32 786478, i32 0, metadata !856, metadata !"ap_int_base", metadata !"ap_int_base", metadata !"", metadata !829, i32 1365, metadata !895, i1 false, i1 false, i32 0, i32 0, null, i32 384, i1 false, null, null, i32 0, metadata !84, i32 1365} ; [ DW_TAG_subprogram ]
!895 = metadata !{i32 786453, i32 0, metadata !"", i32 0, i32 0, i64 0, i64 0, i64 0, i32 0, null, metadata !896, i32 0, i32 0} ; [ DW_TAG_subroutine_type ]
!896 = metadata !{null, metadata !874, metadata !897}
!897 = metadata !{i32 786468, null, metadata !"short", null, i32 0, i64 16, i64 16, i64 0, i32 0, i32 5} ; [ DW_TAG_base_type ]
!898 = metadata !{i32 786478, i32 0, metadata !856, metadata !"ap_int_base", metadata !"ap_int_base", metadata !"", metadata !829, i32 1366, metadata !899, i1 false, i1 false, i32 0, i32 0, null, i32 384, i1 false, null, null, i32 0, metadata !84, i32 1366} ; [ DW_TAG_subprogram ]
!899 = metadata !{i32 786453, i32 0, metadata !"", i32 0, i32 0, i64 0, i64 0, i64 0, i32 0, null, metadata !900, i32 0, i32 0} ; [ DW_TAG_subroutine_type ]
!900 = metadata !{null, metadata !874, metadata !146}
!901 = metadata !{i32 786478, i32 0, metadata !856, metadata !"ap_int_base", metadata !"ap_int_base", metadata !"", metadata !829, i32 1367, metadata !902, i1 false, i1 false, i32 0, i32 0, null, i32 384, i1 false, null, null, i32 0, metadata !84, i32 1367} ; [ DW_TAG_subprogram ]
!902 = metadata !{i32 786453, i32 0, metadata !"", i32 0, i32 0, i64 0, i64 0, i64 0, i32 0, null, metadata !903, i32 0, i32 0} ; [ DW_TAG_subroutine_type ]
!903 = metadata !{null, metadata !874, metadata !56}
!904 = metadata !{i32 786478, i32 0, metadata !856, metadata !"ap_int_base", metadata !"ap_int_base", metadata !"", metadata !829, i32 1368, metadata !905, i1 false, i1 false, i32 0, i32 0, null, i32 384, i1 false, null, null, i32 0, metadata !84, i32 1368} ; [ DW_TAG_subprogram ]
!905 = metadata !{i32 786453, i32 0, metadata !"", i32 0, i32 0, i64 0, i64 0, i64 0, i32 0, null, metadata !906, i32 0, i32 0} ; [ DW_TAG_subroutine_type ]
!906 = metadata !{null, metadata !874, metadata !847}
!907 = metadata !{i32 786478, i32 0, metadata !856, metadata !"ap_int_base", metadata !"ap_int_base", metadata !"", metadata !829, i32 1369, metadata !908, i1 false, i1 false, i32 0, i32 0, null, i32 384, i1 false, null, null, i32 0, metadata !84, i32 1369} ; [ DW_TAG_subprogram ]
!908 = metadata !{i32 786453, i32 0, metadata !"", i32 0, i32 0, i64 0, i64 0, i64 0, i32 0, null, metadata !909, i32 0, i32 0} ; [ DW_TAG_subroutine_type ]
!909 = metadata !{null, metadata !874, metadata !64}
!910 = metadata !{i32 786478, i32 0, metadata !856, metadata !"ap_int_base", metadata !"ap_int_base", metadata !"", metadata !829, i32 1370, metadata !911, i1 false, i1 false, i32 0, i32 0, null, i32 384, i1 false, null, null, i32 0, metadata !84, i32 1370} ; [ DW_TAG_subprogram ]
!911 = metadata !{i32 786453, i32 0, metadata !"", i32 0, i32 0, i64 0, i64 0, i64 0, i32 0, null, metadata !912, i32 0, i32 0} ; [ DW_TAG_subroutine_type ]
!912 = metadata !{null, metadata !874, metadata !121}
!913 = metadata !{i32 786478, i32 0, metadata !856, metadata !"ap_int_base", metadata !"ap_int_base", metadata !"", metadata !829, i32 1371, metadata !914, i1 false, i1 false, i32 0, i32 0, null, i32 384, i1 false, null, null, i32 0, metadata !84, i32 1371} ; [ DW_TAG_subprogram ]
!914 = metadata !{i32 786453, i32 0, metadata !"", i32 0, i32 0, i64 0, i64 0, i64 0, i32 0, null, metadata !915, i32 0, i32 0} ; [ DW_TAG_subroutine_type ]
!915 = metadata !{null, metadata !874, metadata !916}
!916 = metadata !{i32 786454, null, metadata !"ap_slong", metadata !829, i32 66, i64 0, i64 0, i64 0, i32 0, metadata !917} ; [ DW_TAG_typedef ]
!917 = metadata !{i32 786468, null, metadata !"long long int", null, i32 0, i64 64, i64 64, i64 0, i32 0, i32 5} ; [ DW_TAG_base_type ]
!918 = metadata !{i32 786478, i32 0, metadata !856, metadata !"ap_int_base", metadata !"ap_int_base", metadata !"", metadata !829, i32 1372, metadata !919, i1 false, i1 false, i32 0, i32 0, null, i32 384, i1 false, null, null, i32 0, metadata !84, i32 1372} ; [ DW_TAG_subprogram ]
!919 = metadata !{i32 786453, i32 0, metadata !"", i32 0, i32 0, i64 0, i64 0, i64 0, i32 0, null, metadata !920, i32 0, i32 0} ; [ DW_TAG_subroutine_type ]
!920 = metadata !{null, metadata !874, metadata !921}
!921 = metadata !{i32 786454, null, metadata !"ap_ulong", metadata !829, i32 65, i64 0, i64 0, i64 0, i32 0, metadata !922} ; [ DW_TAG_typedef ]
!922 = metadata !{i32 786468, null, metadata !"long long unsigned int", null, i32 0, i64 64, i64 64, i64 0, i32 0, i32 7} ; [ DW_TAG_base_type ]
!923 = metadata !{i32 786478, i32 0, metadata !856, metadata !"ap_int_base", metadata !"ap_int_base", metadata !"", metadata !829, i32 1373, metadata !924, i1 false, i1 false, i32 0, i32 0, null, i32 384, i1 false, null, null, i32 0, metadata !84, i32 1373} ; [ DW_TAG_subprogram ]
!924 = metadata !{i32 786453, i32 0, metadata !"", i32 0, i32 0, i64 0, i64 0, i64 0, i32 0, null, metadata !925, i32 0, i32 0} ; [ DW_TAG_subroutine_type ]
!925 = metadata !{null, metadata !874, metadata !926}
!926 = metadata !{i32 786468, null, metadata !"float", null, i32 0, i64 32, i64 32, i64 0, i32 0, i32 4} ; [ DW_TAG_base_type ]
!927 = metadata !{i32 786478, i32 0, metadata !856, metadata !"ap_int_base", metadata !"ap_int_base", metadata !"", metadata !829, i32 1374, metadata !928, i1 false, i1 false, i32 0, i32 0, null, i32 384, i1 false, null, null, i32 0, metadata !84, i32 1374} ; [ DW_TAG_subprogram ]
!928 = metadata !{i32 786453, i32 0, metadata !"", i32 0, i32 0, i64 0, i64 0, i64 0, i32 0, null, metadata !929, i32 0, i32 0} ; [ DW_TAG_subroutine_type ]
!929 = metadata !{null, metadata !874, metadata !930}
!930 = metadata !{i32 786468, null, metadata !"double", null, i32 0, i64 64, i64 64, i64 0, i32 0, i32 4} ; [ DW_TAG_base_type ]
!931 = metadata !{i32 786478, i32 0, metadata !856, metadata !"ap_int_base", metadata !"ap_int_base", metadata !"", metadata !829, i32 1401, metadata !932, i1 false, i1 false, i32 0, i32 0, null, i32 256, i1 false, null, null, i32 0, metadata !84, i32 1401} ; [ DW_TAG_subprogram ]
!932 = metadata !{i32 786453, i32 0, metadata !"", i32 0, i32 0, i64 0, i64 0, i64 0, i32 0, null, metadata !933, i32 0, i32 0} ; [ DW_TAG_subroutine_type ]
!933 = metadata !{null, metadata !874, metadata !153}
!934 = metadata !{i32 786478, i32 0, metadata !856, metadata !"ap_int_base", metadata !"ap_int_base", metadata !"", metadata !829, i32 1408, metadata !935, i1 false, i1 false, i32 0, i32 0, null, i32 256, i1 false, null, null, i32 0, metadata !84, i32 1408} ; [ DW_TAG_subprogram ]
!935 = metadata !{i32 786453, i32 0, metadata !"", i32 0, i32 0, i64 0, i64 0, i64 0, i32 0, null, metadata !936, i32 0, i32 0} ; [ DW_TAG_subroutine_type ]
!936 = metadata !{null, metadata !874, metadata !153, metadata !889}
!937 = metadata !{i32 786478, i32 0, metadata !856, metadata !"read", metadata !"read", metadata !"_ZNV11ap_int_baseILi1ELb0ELb1EE4readEv", metadata !829, i32 1429, metadata !938, i1 false, i1 false, i32 0, i32 0, null, i32 256, i1 false, null, null, i32 0, metadata !84, i32 1429} ; [ DW_TAG_subprogram ]
!938 = metadata !{i32 786453, i32 0, metadata !"", i32 0, i32 0, i64 0, i64 0, i64 0, i32 0, null, metadata !939, i32 0, i32 0} ; [ DW_TAG_subroutine_type ]
!939 = metadata !{metadata !856, metadata !940}
!940 = metadata !{i32 786447, i32 0, metadata !"", i32 0, i32 0, i64 64, i64 64, i64 0, i32 64, metadata !941} ; [ DW_TAG_pointer_type ]
!941 = metadata !{i32 786485, null, metadata !"", null, i32 0, i64 0, i64 0, i64 0, i32 0, metadata !856} ; [ DW_TAG_volatile_type ]
!942 = metadata !{i32 786478, i32 0, metadata !856, metadata !"write", metadata !"write", metadata !"_ZNV11ap_int_baseILi1ELb0ELb1EE5writeERKS0_", metadata !829, i32 1435, metadata !943, i1 false, i1 false, i32 0, i32 0, null, i32 256, i1 false, null, null, i32 0, metadata !84, i32 1435} ; [ DW_TAG_subprogram ]
!943 = metadata !{i32 786453, i32 0, metadata !"", i32 0, i32 0, i64 0, i64 0, i64 0, i32 0, null, metadata !944, i32 0, i32 0} ; [ DW_TAG_subroutine_type ]
!944 = metadata !{null, metadata !940, metadata !878}
!945 = metadata !{i32 786478, i32 0, metadata !856, metadata !"operator=", metadata !"operator=", metadata !"_ZNV11ap_int_baseILi1ELb0ELb1EEaSERVKS0_", metadata !829, i32 1447, metadata !943, i1 false, i1 false, i32 0, i32 0, null, i32 256, i1 false, null, null, i32 0, metadata !84, i32 1447} ; [ DW_TAG_subprogram ]
!946 = metadata !{i32 786478, i32 0, metadata !856, metadata !"operator=", metadata !"operator=", metadata !"_ZNV11ap_int_baseILi1ELb0ELb1EEaSERKS0_", metadata !829, i32 1456, metadata !943, i1 false, i1 false, i32 0, i32 0, null, i32 256, i1 false, null, null, i32 0, metadata !84, i32 1456} ; [ DW_TAG_subprogram ]
!947 = metadata !{i32 786478, i32 0, metadata !856, metadata !"operator=", metadata !"operator=", metadata !"_ZN11ap_int_baseILi1ELb0ELb1EEaSERVKS0_", metadata !829, i32 1479, metadata !948, i1 false, i1 false, i32 0, i32 0, null, i32 256, i1 false, null, null, i32 0, metadata !84, i32 1479} ; [ DW_TAG_subprogram ]
!948 = metadata !{i32 786453, i32 0, metadata !"", i32 0, i32 0, i64 0, i64 0, i64 0, i32 0, null, metadata !949, i32 0, i32 0} ; [ DW_TAG_subroutine_type ]
!949 = metadata !{metadata !878, metadata !874, metadata !878}
!950 = metadata !{i32 786478, i32 0, metadata !856, metadata !"operator=", metadata !"operator=", metadata !"_ZN11ap_int_baseILi1ELb0ELb1EEaSERKS0_", metadata !829, i32 1484, metadata !948, i1 false, i1 false, i32 0, i32 0, null, i32 256, i1 false, null, null, i32 0, metadata !84, i32 1484} ; [ DW_TAG_subprogram ]
!951 = metadata !{i32 786478, i32 0, metadata !856, metadata !"operator=", metadata !"operator=", metadata !"_ZN11ap_int_baseILi1ELb0ELb1EEaSEPKc", metadata !829, i32 1488, metadata !952, i1 false, i1 false, i32 0, i32 0, null, i32 256, i1 false, null, null, i32 0, metadata !84, i32 1488} ; [ DW_TAG_subprogram ]
!952 = metadata !{i32 786453, i32 0, metadata !"", i32 0, i32 0, i64 0, i64 0, i64 0, i32 0, null, metadata !953, i32 0, i32 0} ; [ DW_TAG_subroutine_type ]
!953 = metadata !{metadata !878, metadata !874, metadata !153}
!954 = metadata !{i32 786478, i32 0, metadata !856, metadata !"set", metadata !"set", metadata !"_ZN11ap_int_baseILi1ELb0ELb1EE3setEPKca", metadata !829, i32 1496, metadata !955, i1 false, i1 false, i32 0, i32 0, null, i32 256, i1 false, null, null, i32 0, metadata !84, i32 1496} ; [ DW_TAG_subprogram ]
!955 = metadata !{i32 786453, i32 0, metadata !"", i32 0, i32 0, i64 0, i64 0, i64 0, i32 0, null, metadata !956, i32 0, i32 0} ; [ DW_TAG_subroutine_type ]
!956 = metadata !{metadata !878, metadata !874, metadata !153, metadata !889}
!957 = metadata !{i32 786478, i32 0, metadata !856, metadata !"operator=", metadata !"operator=", metadata !"_ZN11ap_int_baseILi1ELb0ELb1EEaSEy", metadata !829, i32 1505, metadata !958, i1 false, i1 false, i32 0, i32 0, null, i32 256, i1 false, null, null, i32 0, metadata !84, i32 1505} ; [ DW_TAG_subprogram ]
!958 = metadata !{i32 786453, i32 0, metadata !"", i32 0, i32 0, i64 0, i64 0, i64 0, i32 0, null, metadata !959, i32 0, i32 0} ; [ DW_TAG_subroutine_type ]
!959 = metadata !{metadata !878, metadata !874, metadata !922}
!960 = metadata !{i32 786478, i32 0, metadata !856, metadata !"operator=", metadata !"operator=", metadata !"_ZN11ap_int_baseILi1ELb0ELb1EEaSEx", metadata !829, i32 1510, metadata !961, i1 false, i1 false, i32 0, i32 0, null, i32 256, i1 false, null, null, i32 0, metadata !84, i32 1510} ; [ DW_TAG_subprogram ]
!961 = metadata !{i32 786453, i32 0, metadata !"", i32 0, i32 0, i64 0, i64 0, i64 0, i32 0, null, metadata !962, i32 0, i32 0} ; [ DW_TAG_subroutine_type ]
!962 = metadata !{metadata !878, metadata !874, metadata !917}
!963 = metadata !{i32 786478, i32 0, metadata !856, metadata !"operator unsigned long long", metadata !"operator unsigned long long", metadata !"_ZNK11ap_int_baseILi1ELb0ELb1EEcvyEv", metadata !829, i32 1551, metadata !964, i1 false, i1 false, i32 0, i32 0, null, i32 256, i1 false, null, null, i32 0, metadata !84, i32 1551} ; [ DW_TAG_subprogram ]
!964 = metadata !{i32 786453, i32 0, metadata !"", i32 0, i32 0, i64 0, i64 0, i64 0, i32 0, null, metadata !965, i32 0, i32 0} ; [ DW_TAG_subroutine_type ]
!965 = metadata !{metadata !966, metadata !970}
!966 = metadata !{i32 786454, metadata !856, metadata !"RetType", metadata !829, i32 1307, i64 0, i64 0, i64 0, i32 0, metadata !967} ; [ DW_TAG_typedef ]
!967 = metadata !{i32 786454, metadata !968, metadata !"Type", metadata !829, i32 1292, i64 0, i64 0, i64 0, i32 0, metadata !921} ; [ DW_TAG_typedef ]
!968 = metadata !{i32 786434, null, metadata !"retval<false>", metadata !829, i32 1291, i64 8, i64 8, i32 0, i32 0, null, metadata !836, i32 0, null, metadata !969} ; [ DW_TAG_class_type ]
!969 = metadata !{metadata !870}
!970 = metadata !{i32 786447, i32 0, metadata !"", i32 0, i32 0, i64 64, i64 64, i64 0, i32 64, metadata !971} ; [ DW_TAG_pointer_type ]
!971 = metadata !{i32 786470, null, metadata !"", null, i32 0, i64 0, i64 0, i64 0, i32 0, metadata !856} ; [ DW_TAG_const_type ]
!972 = metadata !{i32 786478, i32 0, metadata !856, metadata !"to_bool", metadata !"to_bool", metadata !"_ZNK11ap_int_baseILi1ELb0ELb1EE7to_boolEv", metadata !829, i32 1557, metadata !973, i1 false, i1 false, i32 0, i32 0, null, i32 256, i1 false, null, null, i32 0, metadata !84, i32 1557} ; [ DW_TAG_subprogram ]
!973 = metadata !{i32 786453, i32 0, metadata !"", i32 0, i32 0, i64 0, i64 0, i64 0, i32 0, null, metadata !974, i32 0, i32 0} ; [ DW_TAG_subroutine_type ]
!974 = metadata !{metadata !219, metadata !970}
!975 = metadata !{i32 786478, i32 0, metadata !856, metadata !"to_int", metadata !"to_int", metadata !"_ZNK11ap_int_baseILi1ELb0ELb1EE6to_intEv", metadata !829, i32 1558, metadata !976, i1 false, i1 false, i32 0, i32 0, null, i32 256, i1 false, null, null, i32 0, metadata !84, i32 1558} ; [ DW_TAG_subprogram ]
!976 = metadata !{i32 786453, i32 0, metadata !"", i32 0, i32 0, i64 0, i64 0, i64 0, i32 0, null, metadata !977, i32 0, i32 0} ; [ DW_TAG_subroutine_type ]
!977 = metadata !{metadata !56, metadata !970}
!978 = metadata !{i32 786478, i32 0, metadata !856, metadata !"to_uint", metadata !"to_uint", metadata !"_ZNK11ap_int_baseILi1ELb0ELb1EE7to_uintEv", metadata !829, i32 1559, metadata !979, i1 false, i1 false, i32 0, i32 0, null, i32 256, i1 false, null, null, i32 0, metadata !84, i32 1559} ; [ DW_TAG_subprogram ]
!979 = metadata !{i32 786453, i32 0, metadata !"", i32 0, i32 0, i64 0, i64 0, i64 0, i32 0, null, metadata !980, i32 0, i32 0} ; [ DW_TAG_subroutine_type ]
!980 = metadata !{metadata !847, metadata !970}
!981 = metadata !{i32 786478, i32 0, metadata !856, metadata !"to_long", metadata !"to_long", metadata !"_ZNK11ap_int_baseILi1ELb0ELb1EE7to_longEv", metadata !829, i32 1560, metadata !982, i1 false, i1 false, i32 0, i32 0, null, i32 256, i1 false, null, null, i32 0, metadata !84, i32 1560} ; [ DW_TAG_subprogram ]
!982 = metadata !{i32 786453, i32 0, metadata !"", i32 0, i32 0, i64 0, i64 0, i64 0, i32 0, null, metadata !983, i32 0, i32 0} ; [ DW_TAG_subroutine_type ]
!983 = metadata !{metadata !64, metadata !970}
!984 = metadata !{i32 786478, i32 0, metadata !856, metadata !"to_ulong", metadata !"to_ulong", metadata !"_ZNK11ap_int_baseILi1ELb0ELb1EE8to_ulongEv", metadata !829, i32 1561, metadata !985, i1 false, i1 false, i32 0, i32 0, null, i32 256, i1 false, null, null, i32 0, metadata !84, i32 1561} ; [ DW_TAG_subprogram ]
!985 = metadata !{i32 786453, i32 0, metadata !"", i32 0, i32 0, i64 0, i64 0, i64 0, i32 0, null, metadata !986, i32 0, i32 0} ; [ DW_TAG_subroutine_type ]
!986 = metadata !{metadata !121, metadata !970}
!987 = metadata !{i32 786478, i32 0, metadata !856, metadata !"to_int64", metadata !"to_int64", metadata !"_ZNK11ap_int_baseILi1ELb0ELb1EE8to_int64Ev", metadata !829, i32 1562, metadata !988, i1 false, i1 false, i32 0, i32 0, null, i32 256, i1 false, null, null, i32 0, metadata !84, i32 1562} ; [ DW_TAG_subprogram ]
!988 = metadata !{i32 786453, i32 0, metadata !"", i32 0, i32 0, i64 0, i64 0, i64 0, i32 0, null, metadata !989, i32 0, i32 0} ; [ DW_TAG_subroutine_type ]
!989 = metadata !{metadata !916, metadata !970}
!990 = metadata !{i32 786478, i32 0, metadata !856, metadata !"to_uint64", metadata !"to_uint64", metadata !"_ZNK11ap_int_baseILi1ELb0ELb1EE9to_uint64Ev", metadata !829, i32 1563, metadata !991, i1 false, i1 false, i32 0, i32 0, null, i32 256, i1 false, null, null, i32 0, metadata !84, i32 1563} ; [ DW_TAG_subprogram ]
!991 = metadata !{i32 786453, i32 0, metadata !"", i32 0, i32 0, i64 0, i64 0, i64 0, i32 0, null, metadata !992, i32 0, i32 0} ; [ DW_TAG_subroutine_type ]
!992 = metadata !{metadata !921, metadata !970}
!993 = metadata !{i32 786478, i32 0, metadata !856, metadata !"to_double", metadata !"to_double", metadata !"_ZNK11ap_int_baseILi1ELb0ELb1EE9to_doubleEv", metadata !829, i32 1564, metadata !994, i1 false, i1 false, i32 0, i32 0, null, i32 256, i1 false, null, null, i32 0, metadata !84, i32 1564} ; [ DW_TAG_subprogram ]
!994 = metadata !{i32 786453, i32 0, metadata !"", i32 0, i32 0, i64 0, i64 0, i64 0, i32 0, null, metadata !995, i32 0, i32 0} ; [ DW_TAG_subroutine_type ]
!995 = metadata !{metadata !930, metadata !970}
!996 = metadata !{i32 786478, i32 0, metadata !856, metadata !"length", metadata !"length", metadata !"_ZNK11ap_int_baseILi1ELb0ELb1EE6lengthEv", metadata !829, i32 1577, metadata !976, i1 false, i1 false, i32 0, i32 0, null, i32 256, i1 false, null, null, i32 0, metadata !84, i32 1577} ; [ DW_TAG_subprogram ]
!997 = metadata !{i32 786478, i32 0, metadata !856, metadata !"length", metadata !"length", metadata !"_ZNVK11ap_int_baseILi1ELb0ELb1EE6lengthEv", metadata !829, i32 1578, metadata !998, i1 false, i1 false, i32 0, i32 0, null, i32 256, i1 false, null, null, i32 0, metadata !84, i32 1578} ; [ DW_TAG_subprogram ]
!998 = metadata !{i32 786453, i32 0, metadata !"", i32 0, i32 0, i64 0, i64 0, i64 0, i32 0, null, metadata !999, i32 0, i32 0} ; [ DW_TAG_subroutine_type ]
!999 = metadata !{metadata !56, metadata !1000}
!1000 = metadata !{i32 786447, i32 0, metadata !"", i32 0, i32 0, i64 64, i64 64, i64 0, i32 64, metadata !1001} ; [ DW_TAG_pointer_type ]
!1001 = metadata !{i32 786470, null, metadata !"", null, i32 0, i64 0, i64 0, i64 0, i32 0, metadata !941} ; [ DW_TAG_const_type ]
!1002 = metadata !{i32 786478, i32 0, metadata !856, metadata !"reverse", metadata !"reverse", metadata !"_ZN11ap_int_baseILi1ELb0ELb1EE7reverseEv", metadata !829, i32 1583, metadata !1003, i1 false, i1 false, i32 0, i32 0, null, i32 256, i1 false, null, null, i32 0, metadata !84, i32 1583} ; [ DW_TAG_subprogram ]
!1003 = metadata !{i32 786453, i32 0, metadata !"", i32 0, i32 0, i64 0, i64 0, i64 0, i32 0, null, metadata !1004, i32 0, i32 0} ; [ DW_TAG_subroutine_type ]
!1004 = metadata !{metadata !878, metadata !874}
!1005 = metadata !{i32 786478, i32 0, metadata !856, metadata !"iszero", metadata !"iszero", metadata !"_ZNK11ap_int_baseILi1ELb0ELb1EE6iszeroEv", metadata !829, i32 1589, metadata !973, i1 false, i1 false, i32 0, i32 0, null, i32 256, i1 false, null, null, i32 0, metadata !84, i32 1589} ; [ DW_TAG_subprogram ]
!1006 = metadata !{i32 786478, i32 0, metadata !856, metadata !"is_zero", metadata !"is_zero", metadata !"_ZNK11ap_int_baseILi1ELb0ELb1EE7is_zeroEv", metadata !829, i32 1594, metadata !973, i1 false, i1 false, i32 0, i32 0, null, i32 256, i1 false, null, null, i32 0, metadata !84, i32 1594} ; [ DW_TAG_subprogram ]
!1007 = metadata !{i32 786478, i32 0, metadata !856, metadata !"sign", metadata !"sign", metadata !"_ZNK11ap_int_baseILi1ELb0ELb1EE4signEv", metadata !829, i32 1599, metadata !973, i1 false, i1 false, i32 0, i32 0, null, i32 256, i1 false, null, null, i32 0, metadata !84, i32 1599} ; [ DW_TAG_subprogram ]
!1008 = metadata !{i32 786478, i32 0, metadata !856, metadata !"clear", metadata !"clear", metadata !"_ZN11ap_int_baseILi1ELb0ELb1EE5clearEi", metadata !829, i32 1607, metadata !902, i1 false, i1 false, i32 0, i32 0, null, i32 256, i1 false, null, null, i32 0, metadata !84, i32 1607} ; [ DW_TAG_subprogram ]
!1009 = metadata !{i32 786478, i32 0, metadata !856, metadata !"invert", metadata !"invert", metadata !"_ZN11ap_int_baseILi1ELb0ELb1EE6invertEi", metadata !829, i32 1613, metadata !902, i1 false, i1 false, i32 0, i32 0, null, i32 256, i1 false, null, null, i32 0, metadata !84, i32 1613} ; [ DW_TAG_subprogram ]
!1010 = metadata !{i32 786478, i32 0, metadata !856, metadata !"test", metadata !"test", metadata !"_ZNK11ap_int_baseILi1ELb0ELb1EE4testEi", metadata !829, i32 1621, metadata !1011, i1 false, i1 false, i32 0, i32 0, null, i32 256, i1 false, null, null, i32 0, metadata !84, i32 1621} ; [ DW_TAG_subprogram ]
!1011 = metadata !{i32 786453, i32 0, metadata !"", i32 0, i32 0, i64 0, i64 0, i64 0, i32 0, null, metadata !1012, i32 0, i32 0} ; [ DW_TAG_subroutine_type ]
!1012 = metadata !{metadata !219, metadata !970, metadata !56}
!1013 = metadata !{i32 786478, i32 0, metadata !856, metadata !"set", metadata !"set", metadata !"_ZN11ap_int_baseILi1ELb0ELb1EE3setEi", metadata !829, i32 1627, metadata !902, i1 false, i1 false, i32 0, i32 0, null, i32 256, i1 false, null, null, i32 0, metadata !84, i32 1627} ; [ DW_TAG_subprogram ]
!1014 = metadata !{i32 786478, i32 0, metadata !856, metadata !"set", metadata !"set", metadata !"_ZN11ap_int_baseILi1ELb0ELb1EE3setEib", metadata !829, i32 1633, metadata !1015, i1 false, i1 false, i32 0, i32 0, null, i32 256, i1 false, null, null, i32 0, metadata !84, i32 1633} ; [ DW_TAG_subprogram ]
!1015 = metadata !{i32 786453, i32 0, metadata !"", i32 0, i32 0, i64 0, i64 0, i64 0, i32 0, null, metadata !1016, i32 0, i32 0} ; [ DW_TAG_subroutine_type ]
!1016 = metadata !{null, metadata !874, metadata !56, metadata !219}
!1017 = metadata !{i32 786478, i32 0, metadata !856, metadata !"lrotate", metadata !"lrotate", metadata !"_ZN11ap_int_baseILi1ELb0ELb1EE7lrotateEi", metadata !829, i32 1640, metadata !902, i1 false, i1 false, i32 0, i32 0, null, i32 256, i1 false, null, null, i32 0, metadata !84, i32 1640} ; [ DW_TAG_subprogram ]
!1018 = metadata !{i32 786478, i32 0, metadata !856, metadata !"rrotate", metadata !"rrotate", metadata !"_ZN11ap_int_baseILi1ELb0ELb1EE7rrotateEi", metadata !829, i32 1649, metadata !902, i1 false, i1 false, i32 0, i32 0, null, i32 256, i1 false, null, null, i32 0, metadata !84, i32 1649} ; [ DW_TAG_subprogram ]
!1019 = metadata !{i32 786478, i32 0, metadata !856, metadata !"set_bit", metadata !"set_bit", metadata !"_ZN11ap_int_baseILi1ELb0ELb1EE7set_bitEib", metadata !829, i32 1657, metadata !1015, i1 false, i1 false, i32 0, i32 0, null, i32 256, i1 false, null, null, i32 0, metadata !84, i32 1657} ; [ DW_TAG_subprogram ]
!1020 = metadata !{i32 786478, i32 0, metadata !856, metadata !"get_bit", metadata !"get_bit", metadata !"_ZNK11ap_int_baseILi1ELb0ELb1EE7get_bitEi", metadata !829, i32 1662, metadata !1011, i1 false, i1 false, i32 0, i32 0, null, i32 256, i1 false, null, null, i32 0, metadata !84, i32 1662} ; [ DW_TAG_subprogram ]
!1021 = metadata !{i32 786478, i32 0, metadata !856, metadata !"b_not", metadata !"b_not", metadata !"_ZN11ap_int_baseILi1ELb0ELb1EE5b_notEv", metadata !829, i32 1667, metadata !872, i1 false, i1 false, i32 0, i32 0, null, i32 256, i1 false, null, null, i32 0, metadata !84, i32 1667} ; [ DW_TAG_subprogram ]
!1022 = metadata !{i32 786478, i32 0, metadata !856, metadata !"countLeadingZeros", metadata !"countLeadingZeros", metadata !"_ZN11ap_int_baseILi1ELb0ELb1EE17countLeadingZerosEv", metadata !829, i32 1674, metadata !1023, i1 false, i1 false, i32 0, i32 0, null, i32 256, i1 false, null, null, i32 0, metadata !84, i32 1674} ; [ DW_TAG_subprogram ]
!1023 = metadata !{i32 786453, i32 0, metadata !"", i32 0, i32 0, i64 0, i64 0, i64 0, i32 0, null, metadata !1024, i32 0, i32 0} ; [ DW_TAG_subroutine_type ]
!1024 = metadata !{metadata !56, metadata !874}
!1025 = metadata !{i32 786478, i32 0, metadata !856, metadata !"operator++", metadata !"operator++", metadata !"_ZN11ap_int_baseILi1ELb0ELb1EEppEv", metadata !829, i32 1731, metadata !1003, i1 false, i1 false, i32 0, i32 0, null, i32 256, i1 false, null, null, i32 0, metadata !84, i32 1731} ; [ DW_TAG_subprogram ]
!1026 = metadata !{i32 786478, i32 0, metadata !856, metadata !"operator--", metadata !"operator--", metadata !"_ZN11ap_int_baseILi1ELb0ELb1EEmmEv", metadata !829, i32 1735, metadata !1003, i1 false, i1 false, i32 0, i32 0, null, i32 256, i1 false, null, null, i32 0, metadata !84, i32 1735} ; [ DW_TAG_subprogram ]
!1027 = metadata !{i32 786478, i32 0, metadata !856, metadata !"operator++", metadata !"operator++", metadata !"_ZN11ap_int_baseILi1ELb0ELb1EEppEi", metadata !829, i32 1743, metadata !1028, i1 false, i1 false, i32 0, i32 0, null, i32 256, i1 false, null, null, i32 0, metadata !84, i32 1743} ; [ DW_TAG_subprogram ]
!1028 = metadata !{i32 786453, i32 0, metadata !"", i32 0, i32 0, i64 0, i64 0, i64 0, i32 0, null, metadata !1029, i32 0, i32 0} ; [ DW_TAG_subroutine_type ]
!1029 = metadata !{metadata !971, metadata !874, metadata !56}
!1030 = metadata !{i32 786478, i32 0, metadata !856, metadata !"operator--", metadata !"operator--", metadata !"_ZN11ap_int_baseILi1ELb0ELb1EEmmEi", metadata !829, i32 1748, metadata !1028, i1 false, i1 false, i32 0, i32 0, null, i32 256, i1 false, null, null, i32 0, metadata !84, i32 1748} ; [ DW_TAG_subprogram ]
!1031 = metadata !{i32 786478, i32 0, metadata !856, metadata !"operator+", metadata !"operator+", metadata !"_ZNK11ap_int_baseILi1ELb0ELb1EEpsEv", metadata !829, i32 1757, metadata !1032, i1 false, i1 false, i32 0, i32 0, null, i32 256, i1 false, null, null, i32 0, metadata !84, i32 1757} ; [ DW_TAG_subprogram ]
!1032 = metadata !{i32 786453, i32 0, metadata !"", i32 0, i32 0, i64 0, i64 0, i64 0, i32 0, null, metadata !1033, i32 0, i32 0} ; [ DW_TAG_subroutine_type ]
!1033 = metadata !{metadata !856, metadata !970}
!1034 = metadata !{i32 786478, i32 0, metadata !856, metadata !"operator!", metadata !"operator!", metadata !"_ZNK11ap_int_baseILi1ELb0ELb1EEntEv", metadata !829, i32 1763, metadata !973, i1 false, i1 false, i32 0, i32 0, null, i32 256, i1 false, null, null, i32 0, metadata !84, i32 1763} ; [ DW_TAG_subprogram ]
!1035 = metadata !{i32 786478, i32 0, metadata !856, metadata !"operator-", metadata !"operator-", metadata !"_ZNK11ap_int_baseILi1ELb0ELb1EEngEv", metadata !829, i32 1768, metadata !1036, i1 false, i1 false, i32 0, i32 0, null, i32 256, i1 false, null, null, i32 0, metadata !84, i32 1768} ; [ DW_TAG_subprogram ]
!1036 = metadata !{i32 786453, i32 0, metadata !"", i32 0, i32 0, i64 0, i64 0, i64 0, i32 0, null, metadata !1037, i32 0, i32 0} ; [ DW_TAG_subroutine_type ]
!1037 = metadata !{metadata !1038, metadata !970}
!1038 = metadata !{i32 786434, null, metadata !"ap_int_base<2, true, true>", metadata !829, i32 605, i32 0, i32 0, i32 0, i32 4, null, null, i32 0} ; [ DW_TAG_class_type ]
!1039 = metadata !{i32 786478, i32 0, metadata !856, metadata !"range", metadata !"range", metadata !"_ZN11ap_int_baseILi1ELb0ELb1EE5rangeEii", metadata !829, i32 1898, metadata !1040, i1 false, i1 false, i32 0, i32 0, null, i32 256, i1 false, null, null, i32 0, metadata !84, i32 1898} ; [ DW_TAG_subprogram ]
!1040 = metadata !{i32 786453, i32 0, metadata !"", i32 0, i32 0, i64 0, i64 0, i64 0, i32 0, null, metadata !1041, i32 0, i32 0} ; [ DW_TAG_subroutine_type ]
!1041 = metadata !{metadata !1042, metadata !874, metadata !56, metadata !56}
!1042 = metadata !{i32 786434, null, metadata !"ap_range_ref<1, false>", metadata !829, i32 878, i32 0, i32 0, i32 0, i32 4, null, null, i32 0} ; [ DW_TAG_class_type ]
!1043 = metadata !{i32 786478, i32 0, metadata !856, metadata !"operator()", metadata !"operator()", metadata !"_ZN11ap_int_baseILi1ELb0ELb1EEclEii", metadata !829, i32 1904, metadata !1040, i1 false, i1 false, i32 0, i32 0, null, i32 256, i1 false, null, null, i32 0, metadata !84, i32 1904} ; [ DW_TAG_subprogram ]
!1044 = metadata !{i32 786478, i32 0, metadata !856, metadata !"range", metadata !"range", metadata !"_ZNK11ap_int_baseILi1ELb0ELb1EE5rangeEii", metadata !829, i32 1910, metadata !1045, i1 false, i1 false, i32 0, i32 0, null, i32 256, i1 false, null, null, i32 0, metadata !84, i32 1910} ; [ DW_TAG_subprogram ]
!1045 = metadata !{i32 786453, i32 0, metadata !"", i32 0, i32 0, i64 0, i64 0, i64 0, i32 0, null, metadata !1046, i32 0, i32 0} ; [ DW_TAG_subroutine_type ]
!1046 = metadata !{metadata !1042, metadata !970, metadata !56, metadata !56}
!1047 = metadata !{i32 786478, i32 0, metadata !856, metadata !"operator()", metadata !"operator()", metadata !"_ZNK11ap_int_baseILi1ELb0ELb1EEclEii", metadata !829, i32 1916, metadata !1045, i1 false, i1 false, i32 0, i32 0, null, i32 256, i1 false, null, null, i32 0, metadata !84, i32 1916} ; [ DW_TAG_subprogram ]
!1048 = metadata !{i32 786478, i32 0, metadata !856, metadata !"operator[]", metadata !"operator[]", metadata !"_ZN11ap_int_baseILi1ELb0ELb1EEixEi", metadata !829, i32 1935, metadata !1049, i1 false, i1 false, i32 0, i32 0, null, i32 256, i1 false, null, null, i32 0, metadata !84, i32 1935} ; [ DW_TAG_subprogram ]
!1049 = metadata !{i32 786453, i32 0, metadata !"", i32 0, i32 0, i64 0, i64 0, i64 0, i32 0, null, metadata !1050, i32 0, i32 0} ; [ DW_TAG_subroutine_type ]
!1050 = metadata !{metadata !1051, metadata !874, metadata !56}
!1051 = metadata !{i32 786434, null, metadata !"ap_bit_ref<1, false>", metadata !829, i32 1124, i32 0, i32 0, i32 0, i32 4, null, null, i32 0} ; [ DW_TAG_class_type ]
!1052 = metadata !{i32 786478, i32 0, metadata !856, metadata !"operator[]", metadata !"operator[]", metadata !"_ZNK11ap_int_baseILi1ELb0ELb1EEixEi", metadata !829, i32 1949, metadata !1011, i1 false, i1 false, i32 0, i32 0, null, i32 256, i1 false, null, null, i32 0, metadata !84, i32 1949} ; [ DW_TAG_subprogram ]
!1053 = metadata !{i32 786478, i32 0, metadata !856, metadata !"bit", metadata !"bit", metadata !"_ZN11ap_int_baseILi1ELb0ELb1EE3bitEi", metadata !829, i32 1963, metadata !1049, i1 false, i1 false, i32 0, i32 0, null, i32 256, i1 false, null, null, i32 0, metadata !84, i32 1963} ; [ DW_TAG_subprogram ]
!1054 = metadata !{i32 786478, i32 0, metadata !856, metadata !"bit", metadata !"bit", metadata !"_ZNK11ap_int_baseILi1ELb0ELb1EE3bitEi", metadata !829, i32 1977, metadata !1011, i1 false, i1 false, i32 0, i32 0, null, i32 256, i1 false, null, null, i32 0, metadata !84, i32 1977} ; [ DW_TAG_subprogram ]
!1055 = metadata !{i32 786478, i32 0, metadata !856, metadata !"and_reduce", metadata !"and_reduce", metadata !"_ZN11ap_int_baseILi1ELb0ELb1EE10and_reduceEv", metadata !829, i32 2157, metadata !1056, i1 false, i1 false, i32 0, i32 0, null, i32 256, i1 false, null, null, i32 0, metadata !84, i32 2157} ; [ DW_TAG_subprogram ]
!1056 = metadata !{i32 786453, i32 0, metadata !"", i32 0, i32 0, i64 0, i64 0, i64 0, i32 0, null, metadata !1057, i32 0, i32 0} ; [ DW_TAG_subroutine_type ]
!1057 = metadata !{metadata !219, metadata !874}
!1058 = metadata !{i32 786478, i32 0, metadata !856, metadata !"nand_reduce", metadata !"nand_reduce", metadata !"_ZN11ap_int_baseILi1ELb0ELb1EE11nand_reduceEv", metadata !829, i32 2160, metadata !1056, i1 false, i1 false, i32 0, i32 0, null, i32 256, i1 false, null, null, i32 0, metadata !84, i32 2160} ; [ DW_TAG_subprogram ]
!1059 = metadata !{i32 786478, i32 0, metadata !856, metadata !"or_reduce", metadata !"or_reduce", metadata !"_ZN11ap_int_baseILi1ELb0ELb1EE9or_reduceEv", metadata !829, i32 2163, metadata !1056, i1 false, i1 false, i32 0, i32 0, null, i32 256, i1 false, null, null, i32 0, metadata !84, i32 2163} ; [ DW_TAG_subprogram ]
!1060 = metadata !{i32 786478, i32 0, metadata !856, metadata !"nor_reduce", metadata !"nor_reduce", metadata !"_ZN11ap_int_baseILi1ELb0ELb1EE10nor_reduceEv", metadata !829, i32 2166, metadata !1056, i1 false, i1 false, i32 0, i32 0, null, i32 256, i1 false, null, null, i32 0, metadata !84, i32 2166} ; [ DW_TAG_subprogram ]
!1061 = metadata !{i32 786478, i32 0, metadata !856, metadata !"xor_reduce", metadata !"xor_reduce", metadata !"_ZN11ap_int_baseILi1ELb0ELb1EE10xor_reduceEv", metadata !829, i32 2169, metadata !1056, i1 false, i1 false, i32 0, i32 0, null, i32 256, i1 false, null, null, i32 0, metadata !84, i32 2169} ; [ DW_TAG_subprogram ]
!1062 = metadata !{i32 786478, i32 0, metadata !856, metadata !"xnor_reduce", metadata !"xnor_reduce", metadata !"_ZN11ap_int_baseILi1ELb0ELb1EE11xnor_reduceEv", metadata !829, i32 2172, metadata !1056, i1 false, i1 false, i32 0, i32 0, null, i32 256, i1 false, null, null, i32 0, metadata !84, i32 2172} ; [ DW_TAG_subprogram ]
!1063 = metadata !{i32 786478, i32 0, metadata !856, metadata !"and_reduce", metadata !"and_reduce", metadata !"_ZNK11ap_int_baseILi1ELb0ELb1EE10and_reduceEv", metadata !829, i32 2176, metadata !973, i1 false, i1 false, i32 0, i32 0, null, i32 256, i1 false, null, null, i32 0, metadata !84, i32 2176} ; [ DW_TAG_subprogram ]
!1064 = metadata !{i32 786478, i32 0, metadata !856, metadata !"nand_reduce", metadata !"nand_reduce", metadata !"_ZNK11ap_int_baseILi1ELb0ELb1EE11nand_reduceEv", metadata !829, i32 2179, metadata !973, i1 false, i1 false, i32 0, i32 0, null, i32 256, i1 false, null, null, i32 0, metadata !84, i32 2179} ; [ DW_TAG_subprogram ]
!1065 = metadata !{i32 786478, i32 0, metadata !856, metadata !"or_reduce", metadata !"or_reduce", metadata !"_ZNK11ap_int_baseILi1ELb0ELb1EE9or_reduceEv", metadata !829, i32 2182, metadata !973, i1 false, i1 false, i32 0, i32 0, null, i32 256, i1 false, null, null, i32 0, metadata !84, i32 2182} ; [ DW_TAG_subprogram ]
!1066 = metadata !{i32 786478, i32 0, metadata !856, metadata !"nor_reduce", metadata !"nor_reduce", metadata !"_ZNK11ap_int_baseILi1ELb0ELb1EE10nor_reduceEv", metadata !829, i32 2185, metadata !973, i1 false, i1 false, i32 0, i32 0, null, i32 256, i1 false, null, null, i32 0, metadata !84, i32 2185} ; [ DW_TAG_subprogram ]
!1067 = metadata !{i32 786478, i32 0, metadata !856, metadata !"xor_reduce", metadata !"xor_reduce", metadata !"_ZNK11ap_int_baseILi1ELb0ELb1EE10xor_reduceEv", metadata !829, i32 2188, metadata !973, i1 false, i1 false, i32 0, i32 0, null, i32 256, i1 false, null, null, i32 0, metadata !84, i32 2188} ; [ DW_TAG_subprogram ]
!1068 = metadata !{i32 786478, i32 0, metadata !856, metadata !"xnor_reduce", metadata !"xnor_reduce", metadata !"_ZNK11ap_int_baseILi1ELb0ELb1EE11xnor_reduceEv", metadata !829, i32 2191, metadata !973, i1 false, i1 false, i32 0, i32 0, null, i32 256, i1 false, null, null, i32 0, metadata !84, i32 2191} ; [ DW_TAG_subprogram ]
!1069 = metadata !{i32 786478, i32 0, metadata !856, metadata !"to_string", metadata !"to_string", metadata !"_ZNK11ap_int_baseILi1ELb0ELb1EE9to_stringEPci8BaseModeb", metadata !829, i32 2198, metadata !1070, i1 false, i1 false, i32 0, i32 0, null, i32 256, i1 false, null, null, i32 0, metadata !84, i32 2198} ; [ DW_TAG_subprogram ]
!1070 = metadata !{i32 786453, i32 0, metadata !"", i32 0, i32 0, i64 0, i64 0, i64 0, i32 0, null, metadata !1071, i32 0, i32 0} ; [ DW_TAG_subroutine_type ]
!1071 = metadata !{null, metadata !970, metadata !194, metadata !56, metadata !828, metadata !219}
!1072 = metadata !{i32 786478, i32 0, metadata !856, metadata !"to_string", metadata !"to_string", metadata !"_ZNK11ap_int_baseILi1ELb0ELb1EE9to_stringE8BaseModeb", metadata !829, i32 2225, metadata !1073, i1 false, i1 false, i32 0, i32 0, null, i32 256, i1 false, null, null, i32 0, metadata !84, i32 2225} ; [ DW_TAG_subprogram ]
!1073 = metadata !{i32 786453, i32 0, metadata !"", i32 0, i32 0, i64 0, i64 0, i64 0, i32 0, null, metadata !1074, i32 0, i32 0} ; [ DW_TAG_subroutine_type ]
!1074 = metadata !{metadata !194, metadata !970, metadata !828, metadata !219}
!1075 = metadata !{i32 786478, i32 0, metadata !856, metadata !"to_string", metadata !"to_string", metadata !"_ZNK11ap_int_baseILi1ELb0ELb1EE9to_stringEab", metadata !829, i32 2229, metadata !1076, i1 false, i1 false, i32 0, i32 0, null, i32 256, i1 false, null, null, i32 0, metadata !84, i32 2229} ; [ DW_TAG_subprogram ]
!1076 = metadata !{i32 786453, i32 0, metadata !"", i32 0, i32 0, i64 0, i64 0, i64 0, i32 0, null, metadata !1077, i32 0, i32 0} ; [ DW_TAG_subroutine_type ]
!1077 = metadata !{metadata !194, metadata !970, metadata !889, metadata !219}
!1078 = metadata !{metadata !1079, metadata !870}
!1079 = metadata !{i32 786480, null, metadata !"_AP_W", metadata !56, i64 1, null, i32 0, i32 0} ; [ DW_TAG_template_value_parameter ]
!1080 = metadata !{i32 786478, i32 0, metadata !852, metadata !"ap_uint", metadata !"ap_uint", metadata !"", metadata !853, i32 137, metadata !1081, i1 false, i1 false, i32 0, i32 0, null, i32 256, i1 false, null, null, i32 0, metadata !84, i32 137} ; [ DW_TAG_subprogram ]
!1081 = metadata !{i32 786453, i32 0, metadata !"", i32 0, i32 0, i64 0, i64 0, i64 0, i32 0, null, metadata !1082, i32 0, i32 0} ; [ DW_TAG_subroutine_type ]
!1082 = metadata !{null, metadata !1083}
!1083 = metadata !{i32 786447, i32 0, metadata !"", i32 0, i32 0, i64 64, i64 64, i64 0, i32 64, metadata !852} ; [ DW_TAG_pointer_type ]
!1084 = metadata !{i32 786478, i32 0, metadata !852, metadata !"ap_uint<1>", metadata !"ap_uint<1>", metadata !"", metadata !853, i32 139, metadata !1085, i1 false, i1 false, i32 0, i32 0, null, i32 256, i1 false, null, metadata !1088, i32 0, metadata !84, i32 139} ; [ DW_TAG_subprogram ]
!1085 = metadata !{i32 786453, i32 0, metadata !"", i32 0, i32 0, i64 0, i64 0, i64 0, i32 0, null, metadata !1086, i32 0, i32 0} ; [ DW_TAG_subroutine_type ]
!1086 = metadata !{null, metadata !1083, metadata !1087}
!1087 = metadata !{i32 786448, null, null, null, i32 0, i64 0, i64 0, i64 0, i32 0, metadata !852} ; [ DW_TAG_reference_type ]
!1088 = metadata !{metadata !880}
!1089 = metadata !{i32 786478, i32 0, metadata !852, metadata !"ap_uint<1>", metadata !"ap_uint<1>", metadata !"", metadata !853, i32 145, metadata !1085, i1 false, i1 false, i32 0, i32 0, null, i32 256, i1 false, null, metadata !1088, i32 0, metadata !84, i32 145} ; [ DW_TAG_subprogram ]
!1090 = metadata !{i32 786478, i32 0, metadata !852, metadata !"ap_uint<1, false>", metadata !"ap_uint<1, false>", metadata !"", metadata !853, i32 180, metadata !1091, i1 false, i1 false, i32 0, i32 0, null, i32 256, i1 false, null, metadata !879, i32 0, metadata !84, i32 180} ; [ DW_TAG_subprogram ]
!1091 = metadata !{i32 786453, i32 0, metadata !"", i32 0, i32 0, i64 0, i64 0, i64 0, i32 0, null, metadata !1092, i32 0, i32 0} ; [ DW_TAG_subroutine_type ]
!1092 = metadata !{null, metadata !1083, metadata !878}
!1093 = metadata !{i32 786478, i32 0, metadata !852, metadata !"ap_uint", metadata !"ap_uint", metadata !"", metadata !853, i32 199, metadata !1094, i1 false, i1 false, i32 0, i32 0, null, i32 256, i1 false, null, null, i32 0, metadata !84, i32 199} ; [ DW_TAG_subprogram ]
!1094 = metadata !{i32 786453, i32 0, metadata !"", i32 0, i32 0, i64 0, i64 0, i64 0, i32 0, null, metadata !1095, i32 0, i32 0} ; [ DW_TAG_subroutine_type ]
!1095 = metadata !{null, metadata !1083, metadata !219}
!1096 = metadata !{i32 786478, i32 0, metadata !852, metadata !"ap_uint", metadata !"ap_uint", metadata !"", metadata !853, i32 200, metadata !1097, i1 false, i1 false, i32 0, i32 0, null, i32 256, i1 false, null, null, i32 0, metadata !84, i32 200} ; [ DW_TAG_subprogram ]
!1097 = metadata !{i32 786453, i32 0, metadata !"", i32 0, i32 0, i64 0, i64 0, i64 0, i32 0, null, metadata !1098, i32 0, i32 0} ; [ DW_TAG_subroutine_type ]
!1098 = metadata !{null, metadata !1083, metadata !889}
!1099 = metadata !{i32 786478, i32 0, metadata !852, metadata !"ap_uint", metadata !"ap_uint", metadata !"", metadata !853, i32 201, metadata !1100, i1 false, i1 false, i32 0, i32 0, null, i32 256, i1 false, null, null, i32 0, metadata !84, i32 201} ; [ DW_TAG_subprogram ]
!1100 = metadata !{i32 786453, i32 0, metadata !"", i32 0, i32 0, i64 0, i64 0, i64 0, i32 0, null, metadata !1101, i32 0, i32 0} ; [ DW_TAG_subroutine_type ]
!1101 = metadata !{null, metadata !1083, metadata !893}
!1102 = metadata !{i32 786478, i32 0, metadata !852, metadata !"ap_uint", metadata !"ap_uint", metadata !"", metadata !853, i32 202, metadata !1103, i1 false, i1 false, i32 0, i32 0, null, i32 256, i1 false, null, null, i32 0, metadata !84, i32 202} ; [ DW_TAG_subprogram ]
!1103 = metadata !{i32 786453, i32 0, metadata !"", i32 0, i32 0, i64 0, i64 0, i64 0, i32 0, null, metadata !1104, i32 0, i32 0} ; [ DW_TAG_subroutine_type ]
!1104 = metadata !{null, metadata !1083, metadata !897}
!1105 = metadata !{i32 786478, i32 0, metadata !852, metadata !"ap_uint", metadata !"ap_uint", metadata !"", metadata !853, i32 203, metadata !1106, i1 false, i1 false, i32 0, i32 0, null, i32 256, i1 false, null, null, i32 0, metadata !84, i32 203} ; [ DW_TAG_subprogram ]
!1106 = metadata !{i32 786453, i32 0, metadata !"", i32 0, i32 0, i64 0, i64 0, i64 0, i32 0, null, metadata !1107, i32 0, i32 0} ; [ DW_TAG_subroutine_type ]
!1107 = metadata !{null, metadata !1083, metadata !146}
!1108 = metadata !{i32 786478, i32 0, metadata !852, metadata !"ap_uint", metadata !"ap_uint", metadata !"", metadata !853, i32 204, metadata !1109, i1 false, i1 false, i32 0, i32 0, null, i32 256, i1 false, null, null, i32 0, metadata !84, i32 204} ; [ DW_TAG_subprogram ]
!1109 = metadata !{i32 786453, i32 0, metadata !"", i32 0, i32 0, i64 0, i64 0, i64 0, i32 0, null, metadata !1110, i32 0, i32 0} ; [ DW_TAG_subroutine_type ]
!1110 = metadata !{null, metadata !1083, metadata !56}
!1111 = metadata !{i32 786478, i32 0, metadata !852, metadata !"ap_uint", metadata !"ap_uint", metadata !"", metadata !853, i32 205, metadata !1112, i1 false, i1 false, i32 0, i32 0, null, i32 256, i1 false, null, null, i32 0, metadata !84, i32 205} ; [ DW_TAG_subprogram ]
!1112 = metadata !{i32 786453, i32 0, metadata !"", i32 0, i32 0, i64 0, i64 0, i64 0, i32 0, null, metadata !1113, i32 0, i32 0} ; [ DW_TAG_subroutine_type ]
!1113 = metadata !{null, metadata !1083, metadata !847}
!1114 = metadata !{i32 786478, i32 0, metadata !852, metadata !"ap_uint", metadata !"ap_uint", metadata !"", metadata !853, i32 206, metadata !1115, i1 false, i1 false, i32 0, i32 0, null, i32 256, i1 false, null, null, i32 0, metadata !84, i32 206} ; [ DW_TAG_subprogram ]
!1115 = metadata !{i32 786453, i32 0, metadata !"", i32 0, i32 0, i64 0, i64 0, i64 0, i32 0, null, metadata !1116, i32 0, i32 0} ; [ DW_TAG_subroutine_type ]
!1116 = metadata !{null, metadata !1083, metadata !64}
!1117 = metadata !{i32 786478, i32 0, metadata !852, metadata !"ap_uint", metadata !"ap_uint", metadata !"", metadata !853, i32 207, metadata !1118, i1 false, i1 false, i32 0, i32 0, null, i32 256, i1 false, null, null, i32 0, metadata !84, i32 207} ; [ DW_TAG_subprogram ]
!1118 = metadata !{i32 786453, i32 0, metadata !"", i32 0, i32 0, i64 0, i64 0, i64 0, i32 0, null, metadata !1119, i32 0, i32 0} ; [ DW_TAG_subroutine_type ]
!1119 = metadata !{null, metadata !1083, metadata !121}
!1120 = metadata !{i32 786478, i32 0, metadata !852, metadata !"ap_uint", metadata !"ap_uint", metadata !"", metadata !853, i32 208, metadata !1121, i1 false, i1 false, i32 0, i32 0, null, i32 256, i1 false, null, null, i32 0, metadata !84, i32 208} ; [ DW_TAG_subprogram ]
!1121 = metadata !{i32 786453, i32 0, metadata !"", i32 0, i32 0, i64 0, i64 0, i64 0, i32 0, null, metadata !1122, i32 0, i32 0} ; [ DW_TAG_subroutine_type ]
!1122 = metadata !{null, metadata !1083, metadata !922}
!1123 = metadata !{i32 786478, i32 0, metadata !852, metadata !"ap_uint", metadata !"ap_uint", metadata !"", metadata !853, i32 209, metadata !1124, i1 false, i1 false, i32 0, i32 0, null, i32 256, i1 false, null, null, i32 0, metadata !84, i32 209} ; [ DW_TAG_subprogram ]
!1124 = metadata !{i32 786453, i32 0, metadata !"", i32 0, i32 0, i64 0, i64 0, i64 0, i32 0, null, metadata !1125, i32 0, i32 0} ; [ DW_TAG_subroutine_type ]
!1125 = metadata !{null, metadata !1083, metadata !917}
!1126 = metadata !{i32 786478, i32 0, metadata !852, metadata !"ap_uint", metadata !"ap_uint", metadata !"", metadata !853, i32 210, metadata !1127, i1 false, i1 false, i32 0, i32 0, null, i32 256, i1 false, null, null, i32 0, metadata !84, i32 210} ; [ DW_TAG_subprogram ]
!1127 = metadata !{i32 786453, i32 0, metadata !"", i32 0, i32 0, i64 0, i64 0, i64 0, i32 0, null, metadata !1128, i32 0, i32 0} ; [ DW_TAG_subroutine_type ]
!1128 = metadata !{null, metadata !1083, metadata !926}
!1129 = metadata !{i32 786478, i32 0, metadata !852, metadata !"ap_uint", metadata !"ap_uint", metadata !"", metadata !853, i32 211, metadata !1130, i1 false, i1 false, i32 0, i32 0, null, i32 256, i1 false, null, null, i32 0, metadata !84, i32 211} ; [ DW_TAG_subprogram ]
!1130 = metadata !{i32 786453, i32 0, metadata !"", i32 0, i32 0, i64 0, i64 0, i64 0, i32 0, null, metadata !1131, i32 0, i32 0} ; [ DW_TAG_subroutine_type ]
!1131 = metadata !{null, metadata !1083, metadata !930}
!1132 = metadata !{i32 786478, i32 0, metadata !852, metadata !"ap_uint", metadata !"ap_uint", metadata !"", metadata !853, i32 213, metadata !1133, i1 false, i1 false, i32 0, i32 0, null, i32 256, i1 false, null, null, i32 0, metadata !84, i32 213} ; [ DW_TAG_subprogram ]
!1133 = metadata !{i32 786453, i32 0, metadata !"", i32 0, i32 0, i64 0, i64 0, i64 0, i32 0, null, metadata !1134, i32 0, i32 0} ; [ DW_TAG_subroutine_type ]
!1134 = metadata !{null, metadata !1083, metadata !153}
!1135 = metadata !{i32 786478, i32 0, metadata !852, metadata !"ap_uint", metadata !"ap_uint", metadata !"", metadata !853, i32 214, metadata !1136, i1 false, i1 false, i32 0, i32 0, null, i32 256, i1 false, null, null, i32 0, metadata !84, i32 214} ; [ DW_TAG_subprogram ]
!1136 = metadata !{i32 786453, i32 0, metadata !"", i32 0, i32 0, i64 0, i64 0, i64 0, i32 0, null, metadata !1137, i32 0, i32 0} ; [ DW_TAG_subroutine_type ]
!1137 = metadata !{null, metadata !1083, metadata !153, metadata !889}
!1138 = metadata !{i32 786478, i32 0, metadata !852, metadata !"operator=", metadata !"operator=", metadata !"_ZNV7ap_uintILi1EEaSERKS0_", metadata !853, i32 217, metadata !1139, i1 false, i1 false, i32 0, i32 0, null, i32 256, i1 false, null, null, i32 0, metadata !84, i32 217} ; [ DW_TAG_subprogram ]
!1139 = metadata !{i32 786453, i32 0, metadata !"", i32 0, i32 0, i64 0, i64 0, i64 0, i32 0, null, metadata !1140, i32 0, i32 0} ; [ DW_TAG_subroutine_type ]
!1140 = metadata !{null, metadata !1141, metadata !1087}
!1141 = metadata !{i32 786447, i32 0, metadata !"", i32 0, i32 0, i64 64, i64 64, i64 0, i32 64, metadata !851} ; [ DW_TAG_pointer_type ]
!1142 = metadata !{i32 786478, i32 0, metadata !852, metadata !"operator=", metadata !"operator=", metadata !"_ZNV7ap_uintILi1EEaSERVKS0_", metadata !853, i32 221, metadata !1139, i1 false, i1 false, i32 0, i32 0, null, i32 256, i1 false, null, null, i32 0, metadata !84, i32 221} ; [ DW_TAG_subprogram ]
!1143 = metadata !{i32 786478, i32 0, metadata !852, metadata !"operator=", metadata !"operator=", metadata !"_ZN7ap_uintILi1EEaSERVKS0_", metadata !853, i32 225, metadata !1144, i1 false, i1 false, i32 0, i32 0, null, i32 256, i1 false, null, null, i32 0, metadata !84, i32 225} ; [ DW_TAG_subprogram ]
!1144 = metadata !{i32 786453, i32 0, metadata !"", i32 0, i32 0, i64 0, i64 0, i64 0, i32 0, null, metadata !1145, i32 0, i32 0} ; [ DW_TAG_subroutine_type ]
!1145 = metadata !{metadata !1087, metadata !1083, metadata !1087}
!1146 = metadata !{i32 786478, i32 0, metadata !852, metadata !"operator=", metadata !"operator=", metadata !"_ZN7ap_uintILi1EEaSERKS0_", metadata !853, i32 230, metadata !1144, i1 false, i1 false, i32 0, i32 0, null, i32 256, i1 false, null, null, i32 0, metadata !84, i32 230} ; [ DW_TAG_subprogram ]
!1147 = metadata !{i32 786478, i32 0, metadata !852, metadata !"~ap_uint", metadata !"~ap_uint", metadata !"", metadata !853, i32 134, metadata !1081, i1 false, i1 false, i32 0, i32 0, null, i32 320, i1 false, null, null, i32 0, metadata !84, i32 134} ; [ DW_TAG_subprogram ]
!1148 = metadata !{i32 786474, metadata !852, null, metadata !853, i32 0, i64 0, i64 0, i64 0, i32 0, metadata !1149} ; [ DW_TAG_friend ]
!1149 = metadata !{i32 786434, null, metadata !"aesl_keep_name_class", metadata !840, i32 5, i64 8, i64 8, i32 0, i32 0, null, metadata !836, i32 0, null, null} ; [ DW_TAG_class_type ]
!1150 = metadata !{metadata !1079}
!1151 = metadata !{i32 786447, null, metadata !"", null, i32 0, i64 64, i64 64, i64 0, i32 0, metadata !852} ; [ DW_TAG_pointer_type ]
!1152 = metadata !{i32 786478, i32 0, null, metadata !"ap_uint", metadata !"ap_uint", metadata !"_ZN7ap_uintILi1EEC1Ei", metadata !853, i32 204, metadata !1109, i1 false, i1 true, i32 0, i32 0, null, i32 256, i1 false, null, null, metadata !1108, metadata !84, i32 204} ; [ DW_TAG_subprogram ]
!1153 = metadata !{i32 786478, i32 0, null, metadata !"ap_uint", metadata !"ap_uint", metadata !"_ZN7ap_uintILi1EEC2Ei", metadata !853, i32 204, metadata !1109, i1 false, i1 true, i32 0, i32 0, null, i32 256, i1 false, null, null, metadata !1108, metadata !84, i32 204} ; [ DW_TAG_subprogram ]
!1154 = metadata !{i32 786478, i32 0, null, metadata !"ap_int_base", metadata !"ap_int_base", metadata !"_ZN11ap_int_baseILi1ELb0ELb1EEC2Ev", metadata !829, i32 1340, metadata !872, i1 false, i1 true, i32 0, i32 0, null, i32 256, i1 false, null, null, metadata !871, metadata !84, i32 1340} ; [ DW_TAG_subprogram ]
!1155 = metadata !{i32 786478, i32 0, null, metadata !"ssdm_int", metadata !"ssdm_int", metadata !"_ZN8ssdm_intILi1ELb0EEC2Ev", metadata !860, i32 3, metadata !865, i1 false, i1 true, i32 0, i32 0, null, i32 256, i1 false, null, null, metadata !864, metadata !84, i32 3} ; [ DW_TAG_subprogram ]
!1156 = metadata !{i32 786478, i32 0, null, metadata !"operator=", metadata !"operator=", metadata !"_ZN6ap_intILi1EEaSERKS0_", metadata !853, i32 125, metadata !1157, i1 false, i1 true, i32 0, i32 0, null, i32 256, i1 false, null, null, metadata !1452, metadata !84, i32 125} ; [ DW_TAG_subprogram ]
!1157 = metadata !{i32 786453, i32 0, metadata !"", i32 0, i32 0, i64 0, i64 0, i64 0, i32 0, null, metadata !1158, i32 0, i32 0} ; [ DW_TAG_subroutine_type ]
!1158 = metadata !{metadata !1159, metadata !1385, metadata !1159}
!1159 = metadata !{i32 786448, null, null, null, i32 0, i64 0, i64 0, i64 0, i32 0, metadata !1160} ; [ DW_TAG_reference_type ]
!1160 = metadata !{i32 786434, null, metadata !"ap_int<1>", metadata !853, i32 27, i64 8, i64 8, i32 0, i32 0, null, metadata !1161, i32 0, null, metadata !1150} ; [ DW_TAG_class_type ]
